(lp0
(lp1
I0
aI0
aI259
aI259
aI0
aI0
aI259
aI259
aI0
aI62
aI259
aI321
aI0
aI0
aI259
aI259
aI0
aI110
aI259
aI369
aI0
aI0
aI259
aI259
aI0
aI199
aI259
aI458
aI156
aI0
aI415
aI259
aI0
aI44
aI259
aI303
aI169
aI0
aI428
aI259
aI122
aI249
aI381
aI508
aI0
aI0
aI259
aI259
aI0
aI0
aI259
aI259
aI0
aI0
aI259
aI259
aI0
aI135
aI259
aI394
aI0
aI0
aI259
aI259
aI0
aI0
aI259
aI259
aI0
aI0
aI259
aI259
aI191
aI0
aI450
aI259
aI0
aI0
aI259
aI259
aI0
aI0
aI259
aI259
aI98
aI38
aI357
aI297
aI0
aI39
aI259
aI298
aI0
aI0
aI259
aI259
aI0
aI223
aI259
aI482
aI0
aI0
aI259
aI259
aI0
aI0
aI259
aI259
aI8
aI0
aI267
aI259
aI9
aI0
aI268
aI259
aI61
aI0
aI320
aI259
aI0
aI0
aI259
aI259
aI0
aI0
aI259
aI259
aI6
aI150
aI265
aI409
aI7
aI0
aI266
aI259
aI0
aI0
aI259
aI259
aI0
aI0
aI259
aI259
aI0
aI150
aI259
aI409
aI0
aI0
aI259
aI259
aI0
aI0
aI259
aI259
aI0
aI194
aI259
aI453
aI0
aI0
aI259
aI259
aI0
aI0
aI259
aI259
aI0
aI80
aI259
aI339
aI0
aI0
aI259
aI259
aI0
aI0
aI259
aI259
aI0
aI119
aI259
aI378
aI0
aI0
aI259
aI259
aI0
aI0
aI259
aI259
aI0
aI0
aI259
aI259
aI0
aI187
aI259
aI446
aI0
aI0
aI259
aI259
aI119
aI0
aI378
aI259
aI0
aI0
aI259
aI259
aI0
aI119
aI259
aI378
aI0
aI0
aI259
aI259
aI66
aI0
aI325
aI259
aI0
aI0
aI259
aI259
aI0
aI0
aI259
aI259
aI0
aI41
aI259
aI300
aI0
aI42
aI259
aI301
aI0
aI0
aI259
aI259
aI0
aI2
aI259
aI261
aI0
aI3
aI259
aI262
aI0
aI195
aI259
aI454
aI0
aI203
aI259
aI462
aI0
aI0
aI259
aI259
aI0
aI0
aI259
aI259
aI0
aI0
aI259
aI259
aI0
aI0
aI259
aI259
aI0
aI0
aI259
aI259
aI0
aI0
aI259
aI259
aI0
aI0
aI259
aI259
aI0
aI0
aI259
aI259
aI0
aI140
aI259
aI399
aI0
aI0
aI259
aI259
aI0
aI0
aI259
aI259
aI233
aI0
aI492
aI259
aI0
aI0
aI259
aI259
aI0
aI0
aI259
aI259
aI0
aI0
aI259
aI259
aI0
aI0
aI259
aI259
aI0
aI151
aI259
aI410
aI0
aI0
aI259
aI259
aI0
aI0
aI259
aI259
aI0
aI0
aI259
aI259
aI212
aI0
aI471
aI259
aI0
aI21
aI259
aI280
aI56
aI0
aI315
aI259
aI0
aI0
aI259
aI259
aI89
aI0
aI348
aI259
aI222
aI0
aI481
aI259
aI0
aI0
aI259
aI259
aI124
aI0
aI383
aI259
aI0
aI0
aI259
aI259
aI0
aI196
aI259
aI455
aI0
aI152
aI259
aI411
aI0
aI0
aI259
aI259
aI0
aI0
aI259
aI259
aI0
aI0
aI259
aI259
aI0
aI0
aI259
aI259
aI42
aI0
aI301
aI259
aI124
aI0
aI383
aI259
aI0
aI0
aI259
aI259
aI0
aI0
aI259
aI259
aI0
aI45
aI259
aI304
aI0
aI46
aI259
aI305
aI0
aI141
aI259
aI400
aI48
aI0
aI307
aI259
aI0
aI0
aI259
aI259
aI0
aI251
aI259
aI510
aI0
aI0
aI259
aI259
aI256
aI0
aI515
aI259
aI145
aI125
aI404
aI384
aI0
aI0
aI259
aI259
aI0
aI0
aI259
aI259
aI106
aI0
aI365
aI259
aI0
aI0
aI259
aI259
aI0
aI232
aI259
aI491
aI0
aI0
aI259
aI259
aI0
aI185
aI259
aI444
aI0
aI0
aI259
aI259
aI119
aI0
aI378
aI259
aI28
aI17
aI287
aI276
aI127
aI111
aI386
aI370
aI0
aI0
aI259
aI259
aI0
aI170
aI259
aI429
aI55
aI0
aI314
aI259
aI0
aI0
aI259
aI259
aI0
aI0
aI259
aI259
aI0
aI29
aI259
aI288
aI140
aI54
aI399
aI313
aI0
aI54
aI259
aI313
aI203
aI18
aI462
aI277
aI0
aI0
aI259
aI259
aI0
aI131
aI259
aI390
aI0
aI0
aI259
aI259
aI0
aI0
aI259
aI259
aI0
aI0
aI259
aI259
aI0
aI98
aI259
aI357
aI0
aI203
aI259
aI462
aI0
aI0
aI259
aI259
aI183
aI0
aI442
aI259
aI0
aI0
aI259
aI259
aI0
aI0
aI259
aI259
aI0
aI172
aI259
aI431
aI0
aI0
aI259
aI259
aI0
aI0
aI259
aI259
aI0
aI36
aI259
aI295
aI232
aI37
aI491
aI296
aI0
aI0
aI259
aI259
aI0
aI0
aI259
aI259
aI0
aI0
aI259
aI259
aI250
aI0
aI509
aI259
aI0
aI0
aI259
aI259
aI88
aI0
aI347
aI259
aI0
aI0
aI259
aI259
aI0
aI0
aI259
aI259
aI0
aI0
aI259
aI259
aI0
aI73
aI259
aI332
aI0
aI0
aI259
aI259
aI0
aI0
aI259
aI259
aI0
aI20
aI259
aI279
aI0
aI0
aI259
aI259
aI8
aI0
aI267
aI259
aI9
aI0
aI268
aI259
aI0
aI0
aI259
aI259
aI0
aI0
aI259
aI259
aI0
aI0
aI259
aI259
aI0
aI0
aI259
aI259
aI0
aI0
aI259
aI259
aI0
aI238
aI259
aI497
aI0
aI0
aI259
aI259
aI0
aI0
aI259
aI259
aI0
aI0
aI259
aI259
aI0
aI0
aI259
aI259
aI0
aI0
aI259
aI259
aI0
aI0
aI259
aI259
aI0
aI92
aI259
aI351
aI0
aI218
aI259
aI477
aI193
aI0
aI452
aI259
aI0
aI75
aI259
aI334
aI0
aI0
aI259
aI259
aI0
aI0
aI259
aI259
aI198
aI257
aI457
aI516
aI0
aI0
aI259
aI259
aI225
aI0
aI484
aI259
aI174
aI0
aI433
aI259
aI0
aI0
aI259
aI259
aI0
aI0
aI259
aI259
aI0
aI0
aI259
aI259
aI0
aI8
aI259
aI267
aI0
aI53
aI259
aI312
aI150
aI54
aI409
aI313
aI0
aI55
aI259
aI314
aI149
aI0
aI408
aI259
aI0
aI0
aI259
aI259
aI0
aI0
aI259
aI259
aI0
aI0
aI259
aI259
aI0
aI0
aI259
aI259
aI0
aI0
aI259
aI259
aI0
aI0
aI259
aI259
aI220
aI0
aI479
aI259
aI64
aI0
aI323
aI259
aI0
aI163
aI259
aI422
aI0
aI84
aI259
aI343
aI0
aI256
aI259
aI515
aI0
aI0
aI259
aI259
aI0
aI0
aI259
aI259
aI0
aI0
aI259
aI259
aI0
aI0
aI259
aI259
aI0
aI43
aI259
aI302
aI0
aI0
aI259
aI259
aI0
aI0
aI259
aI259
aI0
aI177
aI259
aI436
aI0
aI0
aI259
aI259
aI0
aI0
aI259
aI259
aI121
aI0
aI380
aI259
aI0
aI27
aI259
aI286
aI0
aI38
aI259
aI297
aI0
aI39
aI259
aI298
aI0
aI0
aI259
aI259
aI0
aI0
aI259
aI259
aI0
aI0
aI259
aI259
aI0
aI0
aI259
aI259
aI0
aI0
aI259
aI259
aI0
aI0
aI259
aI259
aI0
aI0
aI259
aI259
aI0
aI0
aI259
aI259
aI0
aI0
aI259
aI259
aI0
aI187
aI259
aI446
aI0
aI0
aI259
aI259
aI0
aI0
aI259
aI259
aI0
aI0
aI259
aI259
aI125
aI0
aI384
aI259
aI0
aI167
aI259
aI426
aI0
aI0
aI259
aI259
aI0
aI0
aI259
aI259
aI163
aI31
aI422
aI290
aI0
aI0
aI259
aI259
aI121
aI0
aI380
aI259
aI0
aI0
aI259
aI259
aI0
aI75
aI259
aI334
aI0
aI0
aI259
aI259
aI0
aI0
aI259
aI259
aI0
aI0
aI259
aI259
aI0
aI0
aI259
aI259
aI129
aI0
aI388
aI259
aI0
aI0
aI259
aI259
aI0
aI0
aI259
aI259
aI0
aI0
aI259
aI259
aI0
aI0
aI259
aI259
aI0
aI0
aI259
aI259
aI0
aI67
aI259
aI326
aI0
aI68
aI259
aI327
aI88
aI0
aI347
aI259
aI0
aI60
aI259
aI319
aI0
aI61
aI259
aI320
aI218
aI186
aI477
aI445
aI0
aI0
aI259
aI259
aI97
aI0
aI356
aI259
aI0
aI109
aI259
aI368
aI0
aI0
aI259
aI259
aI0
aI0
aI259
aI259
aI0
aI0
aI259
aI259
aI73
aI83
aI332
aI342
aI0
aI212
aI259
aI471
aI0
aI0
aI259
aI259
aI0
aI0
aI259
aI259
aI0
aI111
aI259
aI370
aI0
aI0
aI259
aI259
aI0
aI135
aI259
aI394
aI0
aI0
aI259
aI259
aI77
aI0
aI336
aI259
aI14
aI0
aI273
aI259
aI25
aI0
aI284
aI259
aI125
aI0
aI384
aI259
aI0
aI0
aI259
aI259
aI0
aI221
aI259
aI480
aI0
aI0
aI259
aI259
aI0
aI0
aI259
aI259
aI0
aI0
aI259
aI259
aI0
aI0
aI259
aI259
aI0
aI0
aI259
aI259
aI0
aI0
aI259
aI259
aI0
aI0
aI259
aI259
aI0
aI0
aI259
aI259
aI137
aI0
aI396
aI259
aI126
aI214
aI385
aI473
aI0
aI0
aI259
aI259
aI37
aI0
aI296
aI259
aI0
aI0
aI259
aI259
aI0
aI0
aI259
aI259
aI0
aI0
aI259
aI259
aI237
aI0
aI496
aI259
aI0
aI0
aI259
aI259
aI0
aI0
aI259
aI259
aI132
aI0
aI391
aI259
aI22
aI0
aI281
aI259
aI80
aI0
aI339
aI259
aI0
aI0
aI259
aI259
aI0
aI0
aI259
aI259
aI251
aI0
aI510
aI259
aI0
aI230
aI259
aI489
aI0
aI0
aI259
aI259
aI0
aI0
aI259
aI259
aI0
aI0
aI259
aI259
aI0
aI0
aI259
aI259
aI0
aI58
aI259
aI317
aI0
aI59
aI259
aI318
aI0
aI0
aI259
aI259
aI0
aI0
aI259
aI259
aI0
aI0
aI259
aI259
aI0
aI0
aI259
aI259
aI0
aI228
aI259
aI487
aI0
aI0
aI259
aI259
aI0
aI0
aI259
aI259
aI0
aI0
aI259
aI259
aI0
aI0
aI259
aI259
aI0
aI0
aI259
aI259
aI0
aI0
aI259
aI259
aI0
aI0
aI259
aI259
aI0
aI12
aI259
aI271
aI0
aI0
aI259
aI259
aI0
aI0
aI259
aI259
aI0
aI0
aI259
aI259
aI0
aI0
aI259
aI259
aI0
aI72
aI259
aI331
aI0
aI0
aI259
aI259
aI0
aI0
aI259
aI259
aI0
aI0
aI259
aI259
aI0
aI0
aI259
aI259
aI0
aI0
aI259
aI259
aI0
aI0
aI259
aI259
aI0
aI0
aI259
aI259
aI0
aI0
aI259
aI259
aI0
aI0
aI259
aI259
aI69
aI0
aI328
aI259
aI70
aI0
aI329
aI259
aI92
aI0
aI351
aI259
aI0
aI0
aI259
aI259
aI0
aI0
aI259
aI259
aI0
aI0
aI259
aI259
aI38
aI0
aI297
aI259
aI39
aI0
aI298
aI259
aI0
aI203
aI259
aI462
aI77
aI0
aI336
aI259
aI151
aI0
aI410
aI259
aI0
aI0
aI259
aI259
aI0
aI0
aI259
aI259
aI0
aI0
aI259
aI259
aI0
aI80
aI259
aI339
aI240
aI0
aI499
aI259
aI0
aI0
aI259
aI259
aI226
aI0
aI485
aI259
aI0
aI168
aI259
aI427
aI118
aI0
aI377
aI259
aI64
aI0
aI323
aI259
aI82
aI166
aI341
aI425
aI0
aI0
aI259
aI259
aI0
aI98
aI259
aI357
aI171
aI0
aI430
aI259
aI0
aI0
aI259
aI259
aI0
aI0
aI259
aI259
aI0
aI0
aI259
aI259
aI124
aI0
aI383
aI259
aI145
aI0
aI404
aI259
aI250
aI0
aI509
aI259
aI0
aI0
aI259
aI259
aI0
aI214
aI259
aI473
aI163
aI0
aI422
aI259
aI0
aI0
aI259
aI259
aI83
aI105
aI342
aI364
aI0
aI0
aI259
aI259
aI0
aI0
aI259
aI259
aI0
aI176
aI259
aI435
aI257
aI0
aI516
aI259
aI0
aI0
aI259
aI259
aI0
aI0
aI259
aI259
aI140
aI138
aI399
aI397
aI0
aI0
aI259
aI259
aI0
aI0
aI259
aI259
aI0
aI0
aI259
aI259
aI0
aI0
aI259
aI259
aI0
aI0
aI259
aI259
aI0
aI0
aI259
aI259
aI0
aI0
aI259
aI259
aI131
aI0
aI390
aI259
aI0
aI0
aI259
aI259
aI0
aI0
aI259
aI259
aI0
aI0
aI259
aI259
aI0
aI0
aI259
aI259
aI0
aI0
aI259
aI259
aI0
aI76
aI259
aI335
aI0
aI0
aI259
aI259
aI0
aI0
aI259
aI259
aI180
aI0
aI439
aI259
aI0
aI0
aI259
aI259
aI0
aI0
aI259
aI259
aI0
aI0
aI259
aI259
aI0
aI0
aI259
aI259
aI0
aI0
aI259
aI259
aI0
aI0
aI259
aI259
aI0
aI146
aI259
aI405
aI0
aI0
aI259
aI259
aI0
aI0
aI259
aI259
aI0
aI132
aI259
aI391
aI0
aI12
aI259
aI271
aI0
aI0
aI259
aI259
aI0
aI0
aI259
aI259
aI0
aI187
aI259
aI446
aI0
aI114
aI259
aI373
aI174
aI0
aI433
aI259
aI188
aI0
aI447
aI259
aI0
aI0
aI259
aI259
aI0
aI0
aI259
aI259
aI0
aI0
aI259
aI259
aI0
aI0
aI259
aI259
aI0
aI0
aI259
aI259
aI0
aI222
aI259
aI481
aI0
aI0
aI259
aI259
aI0
aI0
aI259
aI259
aI44
aI0
aI303
aI259
aI0
aI0
aI259
aI259
aI0
aI0
aI259
aI259
aI0
aI0
aI259
aI259
aI0
aI228
aI259
aI487
aI0
aI0
aI259
aI259
aI0
aI0
aI259
aI259
aI221
aI0
aI480
aI259
aI0
aI0
aI259
aI259
aI0
aI0
aI259
aI259
aI0
aI0
aI259
aI259
aI0
aI0
aI259
aI259
aI0
aI0
aI259
aI259
aI241
aI0
aI500
aI259
aI0
aI0
aI259
aI259
aI0
aI0
aI259
aI259
aI0
aI0
aI259
aI259
aI0
aI0
aI259
aI259
aI0
aI0
aI259
aI259
aI0
aI0
aI259
aI259
aI0
aI0
aI259
aI259
aI0
aI0
aI259
aI259
aI0
aI237
aI259
aI496
aI0
aI0
aI259
aI259
aI0
aI133
aI259
aI392
aI0
aI0
aI259
aI259
aI98
aI0
aI357
aI259
aI0
aI0
aI259
aI259
aI0
aI0
aI259
aI259
aI0
aI0
aI259
aI259
aI0
aI0
aI259
aI259
aI0
aI0
aI259
aI259
aI0
aI0
aI259
aI259
aI0
aI0
aI259
aI259
aI0
aI0
aI259
aI259
aI0
aI0
aI259
aI259
aI59
aI0
aI318
aI259
aI0
aI0
aI259
aI259
aI0
aI20
aI259
aI279
aI10
aI0
aI269
aI259
aI11
aI0
aI270
aI259
aI0
aI0
aI259
aI259
aI0
aI0
aI259
aI259
aI0
aI0
aI259
aI259
aI0
aI0
aI259
aI259
aI189
aI0
aI448
aI259
aI0
aI0
aI259
aI259
aI240
aI0
aI499
aI259
aI237
aI75
aI496
aI334
aI0
aI0
aI259
aI259
aI0
aI0
aI259
aI259
aI207
aI0
aI466
aI259
aI0
aI0
aI259
aI259
aI0
aI0
aI259
aI259
aI0
aI168
aI259
aI427
aI0
aI0
aI259
aI259
aI93
aI0
aI352
aI259
aI0
aI227
aI259
aI486
aI0
aI0
aI259
aI259
aI0
aI0
aI259
aI259
aI0
aI0
aI259
aI259
aI0
aI0
aI259
aI259
aI0
aI0
aI259
aI259
aI164
aI167
aI423
aI426
aI0
aI0
aI259
aI259
aI0
aI0
aI259
aI259
aI0
aI0
aI259
aI259
aI0
aI0
aI259
aI259
aI0
aI87
aI259
aI346
aI0
aI88
aI259
aI347
aI0
aI129
aI259
aI388
aI0
aI0
aI259
aI259
aI0
aI0
aI259
aI259
aI159
aI188
aI418
aI447
aI0
aI0
aI259
aI259
aI0
aI0
aI259
aI259
aI0
aI0
aI259
aI259
aI0
aI0
aI259
aI259
aI0
aI0
aI259
aI259
aI64
aI0
aI323
aI259
aI58
aI0
aI317
aI259
aI96
aI0
aI355
aI259
aI0
aI0
aI259
aI259
aI0
aI0
aI259
aI259
aI87
aI97
aI346
aI356
aI0
aI0
aI259
aI259
aI0
aI0
aI259
aI259
aI0
aI0
aI259
aI259
aI0
aI0
aI259
aI259
aI0
aI0
aI259
aI259
aI62
aI104
aI321
aI363
aI0
aI0
aI259
aI259
aI0
aI0
aI259
aI259
aI0
aI0
aI259
aI259
aI188
aI0
aI447
aI259
aI0
aI0
aI259
aI259
aI235
aI0
aI494
aI259
aI0
aI118
aI259
aI377
aI236
aI0
aI495
aI259
aI0
aI0
aI259
aI259
aI0
aI0
aI259
aI259
aI0
aI0
aI259
aI259
aI109
aI0
aI368
aI259
aI0
aI0
aI259
aI259
aI0
aI0
aI259
aI259
aI0
aI0
aI259
aI259
aI207
aI0
aI466
aI259
aI0
aI0
aI259
aI259
aI237
aI0
aI496
aI259
aI64
aI0
aI323
aI259
aI0
aI0
aI259
aI259
aI0
aI0
aI259
aI259
aI0
aI105
aI259
aI364
aI0
aI145
aI259
aI404
aI0
aI0
aI259
aI259
aI0
aI0
aI259
aI259
aI0
aI0
aI259
aI259
aI0
aI0
aI259
aI259
aI0
aI0
aI259
aI259
aI0
aI0
aI259
aI259
aI0
aI0
aI259
aI259
aI23
aI0
aI282
aI259
aI24
aI147
aI283
aI406
aI0
aI0
aI259
aI259
aI116
aI0
aI375
aI259
aI0
aI0
aI259
aI259
aI0
aI0
aI259
aI259
aI0
aI0
aI259
aI259
aI168
aI70
aI427
aI329
aI0
aI0
aI259
aI259
aI0
aI0
aI259
aI259
aI0
aI0
aI259
aI259
aI203
aI0
aI462
aI259
aI100
aI0
aI359
aI259
aI146
aI0
aI405
aI259
aI0
aI0
aI259
aI259
aI0
aI0
aI259
aI259
aI0
aI0
aI259
aI259
aI0
aI232
aI259
aI491
aI52
aI0
aI311
aI259
aI51
aI125
aI310
aI384
aI57
aI108
aI316
aI367
aI0
aI0
aI259
aI259
aI0
aI0
aI259
aI259
aI257
aI0
aI516
aI259
aI0
aI0
aI259
aI259
aI0
aI0
aI259
aI259
aI0
aI0
aI259
aI259
aI0
aI0
aI259
aI259
aI186
aI0
aI445
aI259
aI0
aI0
aI259
aI259
aI0
aI0
aI259
aI259
aI0
aI0
aI259
aI259
aI0
aI0
aI259
aI259
aI0
aI195
aI259
aI454
aI128
aI0
aI387
aI259
aI0
aI0
aI259
aI259
aI239
aI0
aI498
aI259
aI0
aI0
aI259
aI259
aI219
aI0
aI478
aI259
aI0
aI0
aI259
aI259
aI203
aI82
aI462
aI341
aI127
aI225
aI386
aI484
aI0
aI0
aI259
aI259
aI0
aI0
aI259
aI259
aI0
aI119
aI259
aI378
aI0
aI0
aI259
aI259
aI0
aI205
aI259
aI464
aI0
aI0
aI259
aI259
aI0
aI0
aI259
aI259
aI0
aI0
aI259
aI259
aI0
aI0
aI259
aI259
aI0
aI0
aI259
aI259
aI0
aI0
aI259
aI259
aI203
aI0
aI462
aI259
aI0
aI0
aI259
aI259
aI0
aI30
aI259
aI289
aI0
aI177
aI259
aI436
aI0
aI0
aI259
aI259
aI0
aI0
aI259
aI259
aI0
aI0
aI259
aI259
aI0
aI0
aI259
aI259
aI0
aI0
aI259
aI259
aI0
aI0
aI259
aI259
aI0
aI0
aI259
aI259
aI0
aI43
aI259
aI302
aI0
aI0
aI259
aI259
aI0
aI0
aI259
aI259
aI0
aI0
aI259
aI259
aI0
aI0
aI259
aI259
aI0
aI0
aI259
aI259
aI27
aI0
aI286
aI259
aI34
aI0
aI293
aI259
aI35
aI0
aI294
aI259
aI76
aI0
aI335
aI259
aI0
aI0
aI259
aI259
aI0
aI0
aI259
aI259
aI0
aI99
aI259
aI358
aI0
aI0
aI259
aI259
aI0
aI0
aI259
aI259
aI0
aI0
aI259
aI259
aI0
aI0
aI259
aI259
aI0
aI0
aI259
aI259
aI0
aI219
aI259
aI478
aI0
aI75
aI259
aI334
aI0
aI0
aI259
aI259
aI0
aI0
aI259
aI259
aI0
aI0
aI259
aI259
aI0
aI0
aI259
aI259
aI0
aI0
aI259
aI259
aI0
aI0
aI259
aI259
aI0
aI0
aI259
aI259
aI234
aI153
aI493
aI412
aI0
aI0
aI259
aI259
aI0
aI0
aI259
aI259
aI0
aI0
aI259
aI259
aI256
aI0
aI515
aI259
aI0
aI0
aI259
aI259
aI0
aI0
aI259
aI259
aI0
aI0
aI259
aI259
aI0
aI0
aI259
aI259
aI0
aI0
aI259
aI259
aI0
aI0
aI259
aI259
aI0
aI0
aI259
aI259
aI0
aI0
aI259
aI259
aI0
aI101
aI259
aI360
aI135
aI0
aI394
aI259
aI96
aI0
aI355
aI259
aI0
aI0
aI259
aI259
aI0
aI0
aI259
aI259
aI97
aI0
aI356
aI259
aI55
aI172
aI314
aI431
aI0
aI109
aI259
aI368
aI113
aI90
aI372
aI349
aI0
aI0
aI259
aI259
aI0
aI0
aI259
aI259
aI42
aI0
aI301
aI259
aI0
aI92
aI259
aI351
aI184
aI116
aI443
aI375
aI0
aI0
aI259
aI259
aI0
aI251
aI259
aI510
aI0
aI170
aI259
aI429
aI0
aI0
aI259
aI259
aI0
aI215
aI259
aI474
aI0
aI11
aI259
aI270
aI184
aI159
aI443
aI418
aI0
aI50
aI259
aI309
aI0
aI164
aI259
aI423
aI158
aI116
aI417
aI375
aI0
aI0
aI259
aI259
aI0
aI0
aI259
aI259
aI0
aI0
aI259
aI259
aI0
aI0
aI259
aI259
aI0
aI0
aI259
aI259
aI0
aI46
aI259
aI305
aI0
aI0
aI259
aI259
aI0
aI0
aI259
aI259
aI0
aI0
aI259
aI259
aI0
aI0
aI259
aI259
aI0
aI0
aI259
aI259
aI0
aI0
aI259
aI259
aI0
aI0
aI259
aI259
aI0
aI0
aI259
aI259
aI194
aI182
aI453
aI441
aI0
aI0
aI259
aI259
aI0
aI163
aI259
aI422
aI21
aI0
aI280
aI259
aI0
aI0
aI259
aI259
aI218
aI0
aI477
aI259
aI0
aI3
aI259
aI262
aI0
aI0
aI259
aI259
aI0
aI0
aI259
aI259
aI0
aI0
aI259
aI259
aI10
aI14
aI269
aI273
aI11
aI15
aI270
aI274
aI0
aI16
aI259
aI275
aI0
aI211
aI259
aI470
aI0
aI0
aI259
aI259
aI0
aI0
aI259
aI259
aI0
aI0
aI259
aI259
aI0
aI0
aI259
aI259
aI0
aI86
aI259
aI345
aI109
aI0
aI368
aI259
aI0
aI0
aI259
aI259
aI71
aI41
aI330
aI300
aI0
aI208
aI259
aI467
aI0
aI0
aI259
aI259
aI0
aI0
aI259
aI259
aI0
aI0
aI259
aI259
aI0
aI0
aI259
aI259
aI0
aI0
aI259
aI259
aI176
aI0
aI435
aI259
aI0
aI0
aI259
aI259
aI0
aI0
aI259
aI259
aI0
aI119
aI259
aI378
aI147
aI0
aI406
aI259
aI0
aI0
aI259
aI259
aI0
aI0
aI259
aI259
aI0
aI0
aI259
aI259
aI0
aI0
aI259
aI259
aI0
aI0
aI259
aI259
aI0
aI57
aI259
aI316
aI76
aI0
aI335
aI259
aI0
aI0
aI259
aI259
aI0
aI175
aI259
aI434
aI0
aI0
aI259
aI259
aI0
aI0
aI259
aI259
aI0
aI0
aI259
aI259
aI0
aI0
aI259
aI259
aI0
aI0
aI259
aI259
aI0
aI0
aI259
aI259
aI0
aI237
aI259
aI496
aI0
aI0
aI259
aI259
aI217
aI0
aI476
aI259
aI57
aI0
aI316
aI259
aI0
aI0
aI259
aI259
aI177
aI0
aI436
aI259
aI0
aI0
aI259
aI259
aI0
aI65
aI259
aI324
aI34
aI0
aI293
aI259
aI145
aI0
aI404
aI259
aI0
aI0
aI259
aI259
aI1
aI0
aI260
aI259
aI250
aI0
aI509
aI259
aI0
aI0
aI259
aI259
aI0
aI0
aI259
aI259
aI0
aI0
aI259
aI259
aI0
aI0
aI259
aI259
aI0
aI0
aI259
aI259
aI0
aI0
aI259
aI259
aI0
aI253
aI259
aI512
aI0
aI86
aI259
aI345
aI177
aI160
aI436
aI419
aI0
aI0
aI259
aI259
aI0
aI0
aI259
aI259
aI0
aI0
aI259
aI259
aI0
aI0
aI259
aI259
aI0
aI0
aI259
aI259
aI220
aI0
aI479
aI259
aI0
aI0
aI259
aI259
aI0
aI0
aI259
aI259
aI0
aI42
aI259
aI301
aI0
aI228
aI259
aI487
aI0
aI0
aI259
aI259
aI0
aI0
aI259
aI259
aI0
aI0
aI259
aI259
aI0
aI0
aI259
aI259
aI0
aI214
aI259
aI473
aI0
aI0
aI259
aI259
aI0
aI0
aI259
aI259
aI219
aI0
aI478
aI259
aI0
aI0
aI259
aI259
aI0
aI189
aI259
aI448
aI0
aI0
aI259
aI259
aI0
aI31
aI259
aI290
aI0
aI95
aI259
aI354
aI75
aI0
aI334
aI259
aI0
aI0
aI259
aI259
aI0
aI0
aI259
aI259
aI0
aI0
aI259
aI259
aI0
aI0
aI259
aI259
aI0
aI0
aI259
aI259
aI0
aI0
aI259
aI259
aI0
aI0
aI259
aI259
aI0
aI0
aI259
aI259
aI42
aI0
aI301
aI259
aI0
aI0
aI259
aI259
aI0
aI0
aI259
aI259
aI0
aI0
aI259
aI259
aI0
aI0
aI259
aI259
aI147
aI0
aI406
aI259
aI0
aI142
aI259
aI401
aI0
aI0
aI259
aI259
aI212
aI0
aI471
aI259
aI0
aI0
aI259
aI259
aI173
aI0
aI432
aI259
aI0
aI0
aI259
aI259
aI133
aI0
aI392
aI259
aI0
aI0
aI259
aI259
aI0
aI0
aI259
aI259
aI0
aI0
aI259
aI259
aI0
aI0
aI259
aI259
aI0
aI0
aI259
aI259
aI0
aI0
aI259
aI259
aI0
aI0
aI259
aI259
aI0
aI0
aI259
aI259
aI142
aI36
aI401
aI295
aI0
aI37
aI259
aI296
aI227
aI195
aI486
aI454
aI0
aI80
aI259
aI339
aI0
aI0
aI259
aI259
aI0
aI0
aI259
aI259
aI0
aI0
aI259
aI259
aI0
aI81
aI259
aI340
aI0
aI0
aI259
aI259
aI0
aI0
aI259
aI259
aI0
aI0
aI259
aI259
aI181
aI0
aI440
aI259
aI0
aI0
aI259
aI259
aI65
aI0
aI324
aI259
aI0
aI0
aI259
aI259
aI135
aI0
aI394
aI259
aI99
aI0
aI358
aI259
aI0
aI0
aI259
aI259
aI0
aI0
aI259
aI259
aI0
aI0
aI259
aI259
aI0
aI0
aI259
aI259
aI0
aI0
aI259
aI259
aI0
aI0
aI259
aI259
aI0
aI0
aI259
aI259
aI0
aI127
aI259
aI386
aI0
aI0
aI259
aI259
aI46
aI0
aI305
aI259
aI0
aI187
aI259
aI446
aI0
aI0
aI259
aI259
aI0
aI0
aI259
aI259
aI0
aI0
aI259
aI259
aI0
aI0
aI259
aI259
aI0
aI0
aI259
aI259
aI0
aI0
aI259
aI259
aI0
aI0
aI259
aI259
aI0
aI0
aI259
aI259
aI42
aI206
aI301
aI465
aI186
aI0
aI445
aI259
aI0
aI0
aI259
aI259
aI0
aI0
aI259
aI259
aI0
aI0
aI259
aI259
aI0
aI0
aI259
aI259
aI0
aI0
aI259
aI259
aI0
aI0
aI259
aI259
aI0
aI0
aI259
aI259
aI0
aI164
aI259
aI423
aI0
aI0
aI259
aI259
aI0
aI0
aI259
aI259
aI33
aI122
aI292
aI381
aI0
aI0
aI259
aI259
aI0
aI0
aI259
aI259
aI0
aI0
aI259
aI259
aI203
aI0
aI462
aI259
aI0
aI0
aI259
aI259
aI165
aI0
aI424
aI259
aI0
aI0
aI259
aI259
aI0
aI46
aI259
aI305
aI0
aI0
aI259
aI259
aI0
aI0
aI259
aI259
aI0
aI97
aI259
aI356
aI0
aI0
aI259
aI259
aI0
aI0
aI259
aI259
aI0
aI0
aI259
aI259
aI121
aI0
aI380
aI259
aI0
aI0
aI259
aI259
aI0
aI0
aI259
aI259
aI0
aI188
aI259
aI447
aI0
aI0
aI259
aI259
aI98
aI30
aI357
aI289
aI0
aI102
aI259
aI361
aI0
aI0
aI259
aI259
aI121
aI0
aI380
aI259
aI0
aI0
aI259
aI259
aI0
aI0
aI259
aI259
aI0
aI0
aI259
aI259
aI0
aI0
aI259
aI259
aI0
aI0
aI259
aI259
aI0
aI0
aI259
aI259
aI75
aI0
aI334
aI259
aI0
aI0
aI259
aI259
aI0
aI0
aI259
aI259
aI0
aI0
aI259
aI259
aI0
aI144
aI259
aI403
aI0
aI0
aI259
aI259
aI0
aI0
aI259
aI259
aI94
aI0
aI353
aI259
aI0
aI0
aI259
aI259
aI0
aI0
aI259
aI259
aI0
aI0
aI259
aI259
aI0
aI0
aI259
aI259
aI0
aI0
aI259
aI259
aI0
aI0
aI259
aI259
aI0
aI0
aI259
aI259
aI0
aI0
aI259
aI259
aI8
aI177
aI267
aI436
aI9
aI0
aI268
aI259
aI0
aI0
aI259
aI259
aI0
aI0
aI259
aI259
aI133
aI0
aI392
aI259
aI111
aI220
aI370
aI479
aI0
aI0
aI259
aI259
aI167
aI0
aI426
aI259
aI180
aI0
aI439
aI259
aI0
aI2
aI259
aI261
aI0
aI2
aI259
aI261
aI0
aI3
aI259
aI262
aI0
aI0
aI259
aI259
aI0
aI0
aI259
aI259
aI0
aI0
aI259
aI259
aI0
aI0
aI259
aI259
aI0
aI0
aI259
aI259
aI0
aI0
aI259
aI259
aI0
aI238
aI259
aI497
aI0
aI28
aI259
aI287
aI0
aI194
aI259
aI453
aI0
aI142
aI259
aI401
aI0
aI0
aI259
aI259
aI0
aI0
aI259
aI259
aI0
aI0
aI259
aI259
aI0
aI71
aI259
aI330
aI0
aI0
aI259
aI259
aI0
aI0
aI259
aI259
aI0
aI75
aI259
aI334
aI0
aI0
aI259
aI259
aI0
aI0
aI259
aI259
aI0
aI0
aI259
aI259
aI0
aI0
aI259
aI259
aI0
aI0
aI259
aI259
aI0
aI0
aI259
aI259
aI0
aI0
aI259
aI259
aI0
aI0
aI259
aI259
aI0
aI0
aI259
aI259
aI57
aI0
aI316
aI259
aI0
aI0
aI259
aI259
aI0
aI0
aI259
aI259
aI0
aI0
aI259
aI259
aI0
aI46
aI259
aI305
aI0
aI0
aI259
aI259
aI0
aI0
aI259
aI259
aI181
aI0
aI440
aI259
aI0
aI117
aI259
aI376
aI0
aI0
aI259
aI259
aI0
aI0
aI259
aI259
aI0
aI0
aI259
aI259
aI0
aI0
aI259
aI259
aI0
aI0
aI259
aI259
aI234
aI0
aI493
aI259
aI107
aI0
aI366
aI259
aI0
aI0
aI259
aI259
aI34
aI0
aI293
aI259
aI35
aI0
aI294
aI259
aI0
aI0
aI259
aI259
aI0
aI0
aI259
aI259
aI0
aI110
aI259
aI369
aI0
aI0
aI259
aI259
aI107
aI0
aI366
aI259
aI0
aI0
aI259
aI259
aI0
aI0
aI259
aI259
aI0
aI0
aI259
aI259
aI0
aI154
aI259
aI413
aI0
aI0
aI259
aI259
aI234
aI135
aI493
aI394
aI0
aI0
aI259
aI259
aI45
aI0
aI304
aI259
aI46
aI0
aI305
aI259
aI0
aI44
aI259
aI303
aI0
aI0
aI259
aI259
aI0
aI0
aI259
aI259
aI0
aI0
aI259
aI259
aI196
aI0
aI455
aI259
aI0
aI82
aI259
aI341
aI0
aI0
aI259
aI259
aI0
aI0
aI259
aI259
aI0
aI75
aI259
aI334
aI0
aI0
aI259
aI259
aI186
aI0
aI445
aI259
aI149
aI0
aI408
aI259
aI0
aI0
aI259
aI259
aI0
aI0
aI259
aI259
aI0
aI0
aI259
aI259
aI0
aI0
aI259
aI259
aI0
aI0
aI259
aI259
aI0
aI236
aI259
aI495
aI0
aI0
aI259
aI259
aI215
aI0
aI474
aI259
aI0
aI0
aI259
aI259
aI0
aI0
aI259
aI259
aI0
aI0
aI259
aI259
aI44
aI80
aI303
aI339
aI0
aI4
aI259
aI263
aI29
aI196
aI288
aI455
aI0
aI231
aI259
aI490
aI0
aI0
aI259
aI259
aI0
aI0
aI259
aI259
aI0
aI0
aI259
aI259
aI0
aI0
aI259
aI259
aI0
aI0
aI259
aI259
aI0
aI0
aI259
aI259
aI41
aI0
aI300
aI259
aI42
aI0
aI301
aI259
aI0
aI0
aI259
aI259
aI0
aI0
aI259
aI259
aI15
aI0
aI274
aI259
aI16
aI0
aI275
aI259
aI0
aI0
aI259
aI259
aI0
aI41
aI259
aI300
aI0
aI42
aI259
aI301
aI0
aI0
aI259
aI259
aI15
aI0
aI274
aI259
aI16
aI0
aI275
aI259
aI0
aI0
aI259
aI259
aI0
aI0
aI259
aI259
aI87
aI0
aI346
aI259
aI0
aI0
aI259
aI259
aI0
aI0
aI259
aI259
aI4
aI0
aI263
aI259
aI5
aI0
aI264
aI259
aI0
aI0
aI259
aI259
aI0
aI0
aI259
aI259
aI0
aI0
aI259
aI259
aI212
aI65
aI471
aI324
aI229
aI62
aI488
aI321
aI205
aI0
aI464
aI259
aI74
aI46
aI333
aI305
aI246
aI0
aI505
aI259
aI0
aI0
aI259
aI259
aI0
aI0
aI259
aI259
aI0
aI10
aI259
aI269
aI0
aI11
aI259
aI270
aI0
aI0
aI259
aI259
aI11
aI184
aI270
aI443
aI0
aI117
aI259
aI376
aI78
aI0
aI337
aI259
aI0
aI0
aI259
aI259
aI0
aI0
aI259
aI259
aI0
aI0
aI259
aI259
aI192
aI0
aI451
aI259
aI0
aI0
aI259
aI259
aI0
aI0
aI259
aI259
aI0
aI0
aI259
aI259
aI106
aI0
aI365
aI259
aI0
aI0
aI259
aI259
aI152
aI50
aI411
aI309
aI0
aI0
aI259
aI259
aI175
aI0
aI434
aI259
aI0
aI246
aI259
aI505
aI0
aI0
aI259
aI259
aI180
aI0
aI439
aI259
aI0
aI0
aI259
aI259
aI0
aI0
aI259
aI259
aI0
aI0
aI259
aI259
aI0
aI0
aI259
aI259
aI0
aI0
aI259
aI259
aI0
aI0
aI259
aI259
aI0
aI0
aI259
aI259
aI0
aI0
aI259
aI259
aI0
aI0
aI259
aI259
aI0
aI0
aI259
aI259
aI0
aI0
aI259
aI259
aI0
aI0
aI259
aI259
aI137
aI0
aI396
aI259
aI231
aI0
aI490
aI259
aI0
aI0
aI259
aI259
aI0
aI0
aI259
aI259
aI0
aI0
aI259
aI259
aI196
aI0
aI455
aI259
aI0
aI0
aI259
aI259
aI0
aI0
aI259
aI259
aI0
aI0
aI259
aI259
aI0
aI0
aI259
aI259
aI0
aI0
aI259
aI259
aI0
aI0
aI259
aI259
aI0
aI153
aI259
aI412
aI0
aI0
aI259
aI259
aI0
aI0
aI259
aI259
aI158
aI0
aI417
aI259
aI0
aI0
aI259
aI259
aI0
aI0
aI259
aI259
aI0
aI0
aI259
aI259
aI0
aI0
aI259
aI259
aI61
aI0
aI320
aI259
aI0
aI0
aI259
aI259
aI254
aI0
aI513
aI259
aI11
aI195
aI270
aI454
aI0
aI167
aI259
aI426
aI0
aI0
aI259
aI259
aI239
aI0
aI498
aI259
aI0
aI0
aI259
aI259
aI0
aI0
aI259
aI259
aI0
aI0
aI259
aI259
aI179
aI0
aI438
aI259
aI0
aI93
aI259
aI352
aI0
aI0
aI259
aI259
aI0
aI0
aI259
aI259
aI0
aI0
aI259
aI259
aI0
aI0
aI259
aI259
aI0
aI0
aI259
aI259
aI0
aI0
aI259
aI259
aI0
aI0
aI259
aI259
aI100
aI0
aI359
aI259
aI0
aI0
aI259
aI259
aI0
aI0
aI259
aI259
aI0
aI0
aI259
aI259
aI0
aI0
aI259
aI259
aI0
aI0
aI259
aI259
aI0
aI0
aI259
aI259
aI0
aI0
aI259
aI259
aI0
aI0
aI259
aI259
aI0
aI30
aI259
aI289
aI0
aI0
aI259
aI259
aI0
aI0
aI259
aI259
aI0
aI0
aI259
aI259
aI0
aI0
aI259
aI259
aI0
aI0
aI259
aI259
aI0
aI0
aI259
aI259
aI0
aI0
aI259
aI259
aI0
aI70
aI259
aI329
aI0
aI0
aI259
aI259
aI237
aI0
aI496
aI259
aI0
aI0
aI259
aI259
aI0
aI0
aI259
aI259
aI0
aI0
aI259
aI259
aI0
aI98
aI259
aI357
aI0
aI0
aI259
aI259
aI0
aI0
aI259
aI259
aI0
aI0
aI259
aI259
aI0
aI0
aI259
aI259
aI0
aI0
aI259
aI259
aI0
aI0
aI259
aI259
aI0
aI0
aI259
aI259
aI0
aI0
aI259
aI259
aI0
aI0
aI259
aI259
aI0
aI0
aI259
aI259
aI0
aI0
aI259
aI259
aI167
aI188
aI426
aI447
aI196
aI138
aI455
aI397
aI0
aI0
aI259
aI259
aI0
aI0
aI259
aI259
aI146
aI0
aI405
aI259
aI0
aI0
aI259
aI259
aI0
aI37
aI259
aI296
aI0
aI0
aI259
aI259
aI221
aI176
aI480
aI435
aI0
aI0
aI259
aI259
aI0
aI0
aI259
aI259
aI0
aI0
aI259
aI259
aI0
aI0
aI259
aI259
aI0
aI0
aI259
aI259
aI0
aI0
aI259
aI259
aI0
aI199
aI259
aI458
aI0
aI221
aI259
aI480
aI0
aI0
aI259
aI259
aI0
aI0
aI259
aI259
aI95
aI118
aI354
aI377
aI0
aI0
aI259
aI259
aI0
aI0
aI259
aI259
aI101
aI0
aI360
aI259
aI0
aI0
aI259
aI259
aI64
aI0
aI323
aI259
aI0
aI162
aI259
aI421
aI0
aI0
aI259
aI259
aI0
aI0
aI259
aI259
aI38
aI0
aI297
aI259
aI38
aI0
aI297
aI259
aI202
aI0
aI461
aI259
aI0
aI0
aI259
aI259
aI195
aI0
aI454
aI259
aI0
aI0
aI259
aI259
aI40
aI228
aI299
aI487
aI0
aI0
aI259
aI259
aI0
aI0
aI259
aI259
aI0
aI0
aI259
aI259
aI0
aI0
aI259
aI259
aI0
aI0
aI259
aI259
aI0
aI0
aI259
aI259
aI0
aI222
aI259
aI481
aI249
aI0
aI508
aI259
aI0
aI0
aI259
aI259
aI0
aI0
aI259
aI259
aI0
aI0
aI259
aI259
aI0
aI0
aI259
aI259
aI177
aI41
aI436
aI300
aI0
aI41
aI259
aI300
aI0
aI122
aI259
aI381
aI0
aI0
aI259
aI259
aI0
aI0
aI259
aI259
aI0
aI188
aI259
aI447
aI0
aI0
aI259
aI259
aI153
aI0
aI412
aI259
aI0
aI0
aI259
aI259
aI0
aI0
aI259
aI259
aI0
aI0
aI259
aI259
aI0
aI0
aI259
aI259
aI0
aI0
aI259
aI259
aI0
aI0
aI259
aI259
aI0
aI0
aI259
aI259
aI0
aI0
aI259
aI259
aI0
aI184
aI259
aI443
aI0
aI0
aI259
aI259
aI0
aI0
aI259
aI259
aI0
aI0
aI259
aI259
aI0
aI0
aI259
aI259
aI0
aI0
aI259
aI259
aI0
aI244
aI259
aI503
aI0
aI0
aI259
aI259
aI86
aI0
aI345
aI259
aI64
aI0
aI323
aI259
aI25
aI0
aI284
aI259
aI194
aI0
aI453
aI259
aI0
aI0
aI259
aI259
aI0
aI0
aI259
aI259
aI0
aI0
aI259
aI259
aI0
aI0
aI259
aI259
aI33
aI0
aI292
aI259
aI0
aI176
aI259
aI435
aI0
aI0
aI259
aI259
aI0
aI0
aI259
aI259
aI0
aI0
aI259
aI259
aI180
aI0
aI439
aI259
aI0
aI0
aI259
aI259
aI84
aI0
aI343
aI259
aI0
aI0
aI259
aI259
aI0
aI0
aI259
aI259
aI0
aI0
aI259
aI259
aI0
aI0
aI259
aI259
aI253
aI0
aI512
aI259
aI0
aI0
aI259
aI259
aI0
aI0
aI259
aI259
aI0
aI0
aI259
aI259
aI0
aI0
aI259
aI259
aI0
aI74
aI259
aI333
aI0
aI21
aI259
aI280
aI86
aI0
aI345
aI259
aI0
aI252
aI259
aI511
aI0
aI0
aI259
aI259
aI0
aI0
aI259
aI259
aI0
aI0
aI259
aI259
aI118
aI0
aI377
aI259
aI0
aI0
aI259
aI259
aI0
aI0
aI259
aI259
aI141
aI0
aI400
aI259
aI0
aI0
aI259
aI259
aI171
aI0
aI430
aI259
aI100
aI22
aI359
aI281
aI0
aI0
aI259
aI259
aI0
aI0
aI259
aI259
aI0
aI0
aI259
aI259
aI0
aI25
aI259
aI284
aI159
aI0
aI418
aI259
aI0
aI0
aI259
aI259
aI0
aI0
aI259
aI259
aI156
aI134
aI415
aI393
aI0
aI72
aI259
aI331
aI0
aI0
aI259
aI259
aI0
aI0
aI259
aI259
aI0
aI0
aI259
aI259
aI97
aI0
aI356
aI259
aI0
aI0
aI259
aI259
aI0
aI0
aI259
aI259
aI0
aI0
aI259
aI259
aI0
aI0
aI259
aI259
aI161
aI132
aI420
aI391
aI0
aI0
aI259
aI259
aI0
aI0
aI259
aI259
aI0
aI0
aI259
aI259
aI257
aI0
aI516
aI259
aI244
aI0
aI503
aI259
aI0
aI225
aI259
aI484
aI0
aI0
aI259
aI259
aI0
aI0
aI259
aI259
aI0
aI0
aI259
aI259
aI0
aI0
aI259
aI259
aI34
aI0
aI293
aI259
aI35
aI0
aI294
aI259
aI0
aI222
aI259
aI481
aI156
aI0
aI415
aI259
aI0
aI50
aI259
aI309
aI0
aI0
aI259
aI259
aI16
aI0
aI275
aI259
aI0
aI0
aI259
aI259
aI0
aI0
aI259
aI259
aI0
aI0
aI259
aI259
aI0
aI0
aI259
aI259
aI147
aI0
aI406
aI259
aI0
aI0
aI259
aI259
aI121
aI108
aI380
aI367
aI0
aI0
aI259
aI259
aI0
aI0
aI259
aI259
aI0
aI0
aI259
aI259
aI95
aI257
aI354
aI516
aI255
aI150
aI514
aI409
aI82
aI0
aI341
aI259
aI0
aI0
aI259
aI259
aI133
aI0
aI392
aI259
aI0
aI0
aI259
aI259
aI191
aI0
aI450
aI259
aI0
aI0
aI259
aI259
aI0
aI0
aI259
aI259
aI0
aI0
aI259
aI259
aI0
aI0
aI259
aI259
aI0
aI0
aI259
aI259
aI0
aI208
aI259
aI467
aI0
aI69
aI259
aI328
aI0
aI70
aI259
aI329
aI0
aI0
aI259
aI259
aI218
aI0
aI477
aI259
aI216
aI0
aI475
aI259
aI0
aI164
aI259
aI423
aI0
aI0
aI259
aI259
aI0
aI0
aI259
aI259
aI0
aI0
aI259
aI259
aI0
aI0
aI259
aI259
aI0
aI48
aI259
aI307
aI0
aI0
aI259
aI259
aI0
aI112
aI259
aI371
aI0
aI15
aI259
aI274
aI0
aI16
aI259
aI275
aI83
aI104
aI342
aI363
aI0
aI22
aI259
aI281
aI53
aI0
aI312
aI259
aI60
aI0
aI319
aI259
aI61
aI0
aI320
aI259
aI203
aI0
aI462
aI259
aI0
aI0
aI259
aI259
aI14
aI0
aI273
aI259
aI15
aI49
aI274
aI308
aI16
aI0
aI275
aI259
aI0
aI0
aI259
aI259
aI0
aI0
aI259
aI259
aI0
aI0
aI259
aI259
aI0
aI0
aI259
aI259
aI0
aI0
aI259
aI259
aI257
aI12
aI516
aI271
aI0
aI0
aI259
aI259
aI0
aI0
aI259
aI259
aI253
aI250
aI512
aI509
aI0
aI0
aI259
aI259
aI0
aI0
aI259
aI259
aI0
aI0
aI259
aI259
aI0
aI0
aI259
aI259
aI0
aI0
aI259
aI259
aI173
aI0
aI432
aI259
aI0
aI0
aI259
aI259
aI0
aI143
aI259
aI402
aI0
aI0
aI259
aI259
aI0
aI0
aI259
aI259
aI0
aI0
aI259
aI259
aI0
aI0
aI259
aI259
aI27
aI0
aI286
aI259
aI32
aI0
aI291
aI259
aI0
aI0
aI259
aI259
aI0
aI0
aI259
aI259
aI0
aI0
aI259
aI259
aI0
aI0
aI259
aI259
aI0
aI239
aI259
aI498
aI0
aI0
aI259
aI259
aI0
aI110
aI259
aI369
aI244
aI0
aI503
aI259
aI0
aI0
aI259
aI259
aI0
aI154
aI259
aI413
aI0
aI0
aI259
aI259
aI0
aI0
aI259
aI259
aI0
aI0
aI259
aI259
aI0
aI0
aI259
aI259
aI0
aI153
aI259
aI412
aI0
aI0
aI259
aI259
aI41
aI127
aI300
aI386
aI42
aI0
aI301
aI259
aI0
aI0
aI259
aI259
aI206
aI0
aI465
aI259
aI0
aI0
aI259
aI259
aI0
aI0
aI259
aI259
aI0
aI0
aI259
aI259
aI0
aI0
aI259
aI259
aI0
aI0
aI259
aI259
aI0
aI0
aI259
aI259
aI108
aI0
aI367
aI259
aI0
aI7
aI259
aI266
aI0
aI0
aI259
aI259
aI0
aI0
aI259
aI259
aI0
aI0
aI259
aI259
aI0
aI0
aI259
aI259
aI0
aI0
aI259
aI259
aI0
aI0
aI259
aI259
aI0
aI0
aI259
aI259
aI160
aI0
aI419
aI259
aI0
aI0
aI259
aI259
aI0
aI0
aI259
aI259
aI0
aI0
aI259
aI259
aI0
aI0
aI259
aI259
aI0
aI0
aI259
aI259
aI0
aI0
aI259
aI259
aI0
aI0
aI259
aI259
aI0
aI0
aI259
aI259
aI214
aI0
aI473
aI259
aI0
aI141
aI259
aI400
aI210
aI40
aI469
aI299
aI0
aI0
aI259
aI259
aI41
aI181
aI300
aI440
aI42
aI0
aI301
aI259
aI0
aI0
aI259
aI259
aI0
aI52
aI259
aI311
aI30
aI0
aI289
aI259
aI0
aI158
aI259
aI417
aI0
aI0
aI259
aI259
aI0
aI106
aI259
aI365
aI0
aI0
aI259
aI259
aI0
aI0
aI259
aI259
aI0
aI0
aI259
aI259
aI0
aI0
aI259
aI259
aI0
aI0
aI259
aI259
aI0
aI0
aI259
aI259
aI0
aI229
aI259
aI488
aI0
aI0
aI259
aI259
aI0
aI0
aI259
aI259
aI0
aI56
aI259
aI315
aI0
aI0
aI259
aI259
aI0
aI0
aI259
aI259
aI0
aI0
aI259
aI259
aI0
aI257
aI259
aI516
aI0
aI0
aI259
aI259
aI0
aI0
aI259
aI259
aI0
aI0
aI259
aI259
aI0
aI0
aI259
aI259
aI0
aI0
aI259
aI259
aI235
aI0
aI494
aI259
aI0
aI0
aI259
aI259
aI0
aI0
aI259
aI259
aI0
aI0
aI259
aI259
aI0
aI0
aI259
aI259
aI0
aI0
aI259
aI259
aI228
aI0
aI487
aI259
aI0
aI73
aI259
aI332
aI0
aI0
aI259
aI259
aI183
aI0
aI442
aI259
aI0
aI0
aI259
aI259
aI0
aI0
aI259
aI259
aI0
aI0
aI259
aI259
aI0
aI0
aI259
aI259
aI0
aI221
aI259
aI480
aI0
aI0
aI259
aI259
aI0
aI0
aI259
aI259
aI0
aI0
aI259
aI259
aI164
aI175
aI423
aI434
aI0
aI0
aI259
aI259
aI0
aI203
aI259
aI462
aI0
aI0
aI259
aI259
aI0
aI0
aI259
aI259
aI0
aI0
aI259
aI259
aI0
aI0
aI259
aI259
aI0
aI0
aI259
aI259
aI0
aI205
aI259
aI464
aI0
aI0
aI259
aI259
aI0
aI0
aI259
aI259
aI0
aI0
aI259
aI259
aI0
aI184
aI259
aI443
aI253
aI0
aI512
aI259
aI0
aI91
aI259
aI350
aI0
aI0
aI259
aI259
aI0
aI0
aI259
aI259
aI0
aI0
aI259
aI259
aI0
aI0
aI259
aI259
aI0
aI0
aI259
aI259
aI0
aI0
aI259
aI259
aI0
aI0
aI259
aI259
aI0
aI0
aI259
aI259
aI0
aI0
aI259
aI259
aI0
aI0
aI259
aI259
aI0
aI0
aI259
aI259
aI0
aI0
aI259
aI259
aI0
aI0
aI259
aI259
aI0
aI0
aI259
aI259
aI0
aI0
aI259
aI259
aI0
aI0
aI259
aI259
aI158
aI0
aI417
aI259
aI0
aI0
aI259
aI259
aI0
aI0
aI259
aI259
aI0
aI96
aI259
aI355
aI0
aI40
aI259
aI299
aI0
aI158
aI259
aI417
aI0
aI0
aI259
aI259
aI225
aI0
aI484
aI259
aI0
aI0
aI259
aI259
aI0
aI0
aI259
aI259
aI0
aI0
aI259
aI259
aI0
aI0
aI259
aI259
aI0
aI0
aI259
aI259
aI0
aI0
aI259
aI259
aI0
aI184
aI259
aI443
aI0
aI0
aI259
aI259
aI213
aI0
aI472
aI259
aI0
aI99
aI259
aI358
aI0
aI0
aI259
aI259
aI0
aI242
aI259
aI501
aI18
aI172
aI277
aI431
aI26
aI0
aI285
aI259
aI0
aI153
aI259
aI412
aI0
aI0
aI259
aI259
aI235
aI0
aI494
aI259
aI104
aI0
aI363
aI259
aI0
aI0
aI259
aI259
aI45
aI0
aI304
aI259
aI46
aI44
aI305
aI303
aI164
aI51
aI423
aI310
aI0
aI52
aI259
aI311
aI0
aI134
aI259
aI393
aI0
aI0
aI259
aI259
aI0
aI0
aI259
aI259
aI0
aI0
aI259
aI259
aI0
aI0
aI259
aI259
aI0
aI0
aI259
aI259
aI0
aI0
aI259
aI259
aI0
aI0
aI259
aI259
aI0
aI253
aI259
aI512
aI208
aI0
aI467
aI259
aI0
aI0
aI259
aI259
aI0
aI0
aI259
aI259
aI0
aI0
aI259
aI259
aI0
aI0
aI259
aI259
aI0
aI0
aI259
aI259
aI0
aI0
aI259
aI259
aI0
aI0
aI259
aI259
aI0
aI0
aI259
aI259
aI0
aI0
aI259
aI259
aI0
aI0
aI259
aI259
aI0
aI0
aI259
aI259
aI206
aI0
aI465
aI259
aI0
aI0
aI259
aI259
aI0
aI0
aI259
aI259
aI142
aI0
aI401
aI259
aI0
aI0
aI259
aI259
aI0
aI143
aI259
aI402
aI71
aI0
aI330
aI259
aI0
aI0
aI259
aI259
aI0
aI102
aI259
aI361
aI0
aI168
aI259
aI427
aI0
aI0
aI259
aI259
aI0
aI0
aI259
aI259
aI131
aI0
aI390
aI259
aI0
aI153
aI259
aI412
aI0
aI0
aI259
aI259
aI0
aI0
aI259
aI259
aI67
aI0
aI326
aI259
aI68
aI0
aI327
aI259
aI0
aI0
aI259
aI259
aI0
aI0
aI259
aI259
aI0
aI0
aI259
aI259
aI253
aI0
aI512
aI259
aI0
aI0
aI259
aI259
aI0
aI0
aI259
aI259
aI0
aI0
aI259
aI259
aI0
aI0
aI259
aI259
aI0
aI234
aI259
aI493
aI0
aI0
aI259
aI259
aI0
aI0
aI259
aI259
aI0
aI0
aI259
aI259
aI0
aI0
aI259
aI259
aI190
aI0
aI449
aI259
aI0
aI0
aI259
aI259
aI0
aI0
aI259
aI259
aI0
aI0
aI259
aI259
aI0
aI0
aI259
aI259
aI0
aI0
aI259
aI259
aI0
aI0
aI259
aI259
aI0
aI0
aI259
aI259
aI0
aI0
aI259
aI259
aI0
aI0
aI259
aI259
aI0
aI219
aI259
aI478
aI0
aI0
aI259
aI259
aI0
aI0
aI259
aI259
aI114
aI0
aI373
aI259
aI0
aI0
aI259
aI259
aI0
aI0
aI259
aI259
aI0
aI0
aI259
aI259
aI0
aI19
aI259
aI278
aI0
aI20
aI259
aI279
aI0
aI105
aI259
aI364
aI91
aI224
aI350
aI483
aI0
aI0
aI259
aI259
aI0
aI0
aI259
aI259
aI0
aI220
aI259
aI479
aI0
aI0
aI259
aI259
aI0
aI0
aI259
aI259
aI0
aI0
aI259
aI259
aI0
aI0
aI259
aI259
aI0
aI97
aI259
aI356
aI41
aI0
aI300
aI259
aI41
aI239
aI300
aI498
aI42
aI0
aI301
aI259
aI0
aI1
aI259
aI260
aI0
aI15
aI259
aI274
aI0
aI49
aI259
aI308
aI0
aI0
aI259
aI259
aI0
aI20
aI259
aI279
aI0
aI0
aI259
aI259
aI0
aI0
aI259
aI259
aI0
aI0
aI259
aI259
aI0
aI202
aI259
aI461
aI172
aI0
aI431
aI259
aI0
aI0
aI259
aI259
aI0
aI0
aI259
aI259
aI0
aI0
aI259
aI259
aI0
aI0
aI259
aI259
aI68
aI0
aI327
aI259
aI82
aI0
aI341
aI259
aI0
aI0
aI259
aI259
aI0
aI0
aI259
aI259
aI0
aI0
aI259
aI259
aI0
aI0
aI259
aI259
aI0
aI0
aI259
aI259
aI0
aI0
aI259
aI259
aI0
aI0
aI259
aI259
aI0
aI0
aI259
aI259
aI0
aI0
aI259
aI259
aI0
aI0
aI259
aI259
aI0
aI0
aI259
aI259
aI0
aI0
aI259
aI259
aI0
aI0
aI259
aI259
aI0
aI176
aI259
aI435
aI0
aI0
aI259
aI259
aI0
aI0
aI259
aI259
aI217
aI0
aI476
aI259
aI157
aI0
aI416
aI259
aI242
aI0
aI501
aI259
aI0
aI0
aI259
aI259
aI0
aI0
aI259
aI259
aI0
aI0
aI259
aI259
aI0
aI256
aI259
aI515
aI12
aI0
aI271
aI259
aI125
aI0
aI384
aI259
aI0
aI0
aI259
aI259
aI218
aI0
aI477
aI259
aI0
aI0
aI259
aI259
aI87
aI0
aI346
aI259
aI0
aI48
aI259
aI307
aI89
aI0
aI348
aI259
aI0
aI0
aI259
aI259
aI21
aI0
aI280
aI259
aI247
aI0
aI506
aI259
aI203
aI0
aI462
aI259
aI241
aI0
aI500
aI259
aI0
aI0
aI259
aI259
aI254
aI0
aI513
aI259
aI0
aI0
aI259
aI259
aI0
aI0
aI259
aI259
aI0
aI0
aI259
aI259
aI0
aI0
aI259
aI259
aI0
aI74
aI259
aI333
aI0
aI0
aI259
aI259
aI0
aI0
aI259
aI259
aI0
aI0
aI259
aI259
aI0
aI0
aI259
aI259
aI0
aI0
aI259
aI259
aI0
aI0
aI259
aI259
aI0
aI0
aI259
aI259
aI0
aI0
aI259
aI259
aI0
aI136
aI259
aI395
aI0
aI66
aI259
aI325
aI0
aI0
aI259
aI259
aI0
aI0
aI259
aI259
aI0
aI0
aI259
aI259
aI0
aI0
aI259
aI259
aI0
aI0
aI259
aI259
aI0
aI0
aI259
aI259
aI0
aI0
aI259
aI259
aI0
aI0
aI259
aI259
aI0
aI0
aI259
aI259
aI0
aI0
aI259
aI259
aI0
aI86
aI259
aI345
aI0
aI0
aI259
aI259
aI0
aI0
aI259
aI259
aI159
aI215
aI418
aI474
aI0
aI0
aI259
aI259
aI0
aI200
aI259
aI459
aI110
aI0
aI369
aI259
aI0
aI0
aI259
aI259
aI0
aI0
aI259
aI259
aI231
aI0
aI490
aI259
aI0
aI0
aI259
aI259
aI80
aI0
aI339
aI259
aI0
aI0
aI259
aI259
aI0
aI0
aI259
aI259
aI0
aI241
aI259
aI500
aI0
aI28
aI259
aI287
aI0
aI29
aI259
aI288
aI251
aI0
aI510
aI259
aI55
aI0
aI314
aI259
aI1
aI0
aI260
aI259
aI2
aI0
aI261
aI259
aI3
aI0
aI262
aI259
aI0
aI0
aI259
aI259
aI0
aI0
aI259
aI259
aI0
aI0
aI259
aI259
aI18
aI0
aI277
aI259
aI0
aI0
aI259
aI259
aI224
aI0
aI483
aI259
aI0
aI0
aI259
aI259
aI0
aI0
aI259
aI259
aI222
aI0
aI481
aI259
aI0
aI67
aI259
aI326
aI0
aI68
aI259
aI327
aI0
aI0
aI259
aI259
aI214
aI0
aI473
aI259
aI160
aI117
aI419
aI376
aI0
aI68
aI259
aI327
aI0
aI0
aI259
aI259
aI0
aI0
aI259
aI259
aI0
aI0
aI259
aI259
aI0
aI251
aI259
aI510
aI0
aI0
aI259
aI259
aI242
aI0
aI501
aI259
aI0
aI76
aI259
aI335
aI0
aI145
aI259
aI404
aI0
aI0
aI259
aI259
aI255
aI0
aI514
aI259
aI0
aI0
aI259
aI259
aI82
aI0
aI341
aI259
aI0
aI195
aI259
aI454
aI0
aI0
aI259
aI259
aI0
aI0
aI259
aI259
aI0
aI0
aI259
aI259
aI0
aI69
aI259
aI328
aI0
aI70
aI259
aI329
aI0
aI0
aI259
aI259
aI0
aI0
aI259
aI259
aI190
aI0
aI449
aI259
aI0
aI0
aI259
aI259
aI162
aI0
aI421
aI259
aI0
aI0
aI259
aI259
aI0
aI154
aI259
aI413
aI0
aI0
aI259
aI259
aI0
aI25
aI259
aI284
aI0
aI0
aI259
aI259
aI0
aI0
aI259
aI259
aI0
aI0
aI259
aI259
aI0
aI0
aI259
aI259
aI0
aI0
aI259
aI259
aI0
aI0
aI259
aI259
aI0
aI0
aI259
aI259
aI0
aI225
aI259
aI484
aI0
aI0
aI259
aI259
aI0
aI0
aI259
aI259
aI0
aI33
aI259
aI292
aI0
aI207
aI259
aI466
aI0
aI131
aI259
aI390
aI0
aI0
aI259
aI259
aI0
aI0
aI259
aI259
aI0
aI0
aI259
aI259
aI0
aI0
aI259
aI259
aI0
aI30
aI259
aI289
aI0
aI0
aI259
aI259
aI0
aI0
aI259
aI259
aI0
aI0
aI259
aI259
aI0
aI0
aI259
aI259
aI0
aI0
aI259
aI259
aI0
aI0
aI259
aI259
aI0
aI212
aI259
aI471
aI121
aI0
aI380
aI259
aI0
aI0
aI259
aI259
aI0
aI0
aI259
aI259
aI0
aI0
aI259
aI259
aI0
aI0
aI259
aI259
aI0
aI0
aI259
aI259
aI0
aI0
aI259
aI259
aI0
aI0
aI259
aI259
aI175
aI0
aI434
aI259
aI0
aI0
aI259
aI259
aI0
aI180
aI259
aI439
aI0
aI0
aI259
aI259
aI0
aI0
aI259
aI259
aI0
aI76
aI259
aI335
aI0
aI0
aI259
aI259
aI0
aI59
aI259
aI318
aI0
aI0
aI259
aI259
aI0
aI151
aI259
aI410
aI249
aI0
aI508
aI259
aI0
aI0
aI259
aI259
aI0
aI0
aI259
aI259
aI0
aI197
aI259
aI456
aI226
aI0
aI485
aI259
aI0
aI0
aI259
aI259
aI0
aI0
aI259
aI259
aI0
aI0
aI259
aI259
aI0
aI182
aI259
aI441
aI145
aI0
aI404
aI259
aI0
aI0
aI259
aI259
aI0
aI20
aI259
aI279
aI0
aI166
aI259
aI425
aI0
aI0
aI259
aI259
aI0
aI0
aI259
aI259
aI0
aI0
aI259
aI259
aI39
aI0
aI298
aI259
aI0
aI0
aI259
aI259
aI121
aI0
aI380
aI259
aI0
aI213
aI259
aI472
aI0
aI0
aI259
aI259
aI0
aI0
aI259
aI259
aI137
aI0
aI396
aI259
aI0
aI0
aI259
aI259
aI0
aI0
aI259
aI259
aI0
aI0
aI259
aI259
aI0
aI155
aI259
aI414
aI0
aI0
aI259
aI259
aI0
aI0
aI259
aI259
aI0
aI0
aI259
aI259
aI0
aI0
aI259
aI259
aI0
aI0
aI259
aI259
aI189
aI201
aI448
aI460
aI140
aI0
aI399
aI259
aI0
aI32
aI259
aI291
aI153
aI0
aI412
aI259
aI0
aI91
aI259
aI350
aI0
aI0
aI259
aI259
aI0
aI0
aI259
aI259
aI0
aI0
aI259
aI259
aI236
aI22
aI495
aI281
aI0
aI0
aI259
aI259
aI0
aI0
aI259
aI259
aI6
aI0
aI265
aI259
aI7
aI0
aI266
aI259
aI0
aI0
aI259
aI259
aI39
aI0
aI298
aI259
aI0
aI0
aI259
aI259
aI0
aI235
aI259
aI494
aI0
aI0
aI259
aI259
aI206
aI0
aI465
aI259
aI0
aI0
aI259
aI259
aI0
aI0
aI259
aI259
aI0
aI258
aI259
aI517
aI184
aI138
aI443
aI397
aI0
aI126
aI259
aI385
aI142
aI1
aI401
aI260
aI247
aI8
aI506
aI267
aI0
aI9
aI259
aI268
aI0
aI0
aI259
aI259
aI0
aI0
aI259
aI259
aI197
aI0
aI456
aI259
aI0
aI0
aI259
aI259
aI0
aI0
aI259
aI259
aI0
aI0
aI259
aI259
aI0
aI0
aI259
aI259
aI0
aI0
aI259
aI259
aI0
aI183
aI259
aI442
aI0
aI181
aI259
aI440
aI0
aI0
aI259
aI259
aI0
aI0
aI259
aI259
aI0
aI222
aI259
aI481
aI0
aI0
aI259
aI259
aI0
aI0
aI259
aI259
aI0
aI0
aI259
aI259
aI0
aI0
aI259
aI259
aI0
aI0
aI259
aI259
aI0
aI57
aI259
aI316
aI0
aI0
aI259
aI259
aI0
aI0
aI259
aI259
aI0
aI204
aI259
aI463
aI0
aI0
aI259
aI259
aI0
aI0
aI259
aI259
aI0
aI0
aI259
aI259
aI0
aI0
aI259
aI259
aI144
aI0
aI403
aI259
aI0
aI0
aI259
aI259
aI0
aI0
aI259
aI259
aI0
aI0
aI259
aI259
aI0
aI0
aI259
aI259
aI0
aI0
aI259
aI259
aI0
aI0
aI259
aI259
aI0
aI52
aI259
aI311
aI57
aI0
aI316
aI259
aI0
aI220
aI259
aI479
aI0
aI0
aI259
aI259
aI0
aI0
aI259
aI259
aI0
aI0
aI259
aI259
aI0
aI44
aI259
aI303
aI0
aI0
aI259
aI259
aI51
aI0
aI310
aI259
aI52
aI0
aI311
aI259
aI0
aI0
aI259
aI259
aI0
aI0
aI259
aI259
aI0
aI0
aI259
aI259
aI33
aI0
aI292
aI259
aI0
aI0
aI259
aI259
aI0
aI230
aI259
aI489
aI0
aI0
aI259
aI259
aI22
aI0
aI281
aI259
aI0
aI0
aI259
aI259
aI0
aI0
aI259
aI259
aI0
aI0
aI259
aI259
aI85
aI27
aI344
aI286
aI0
aI93
aI259
aI352
aI0
aI136
aI259
aI395
aI0
aI0
aI259
aI259
aI0
aI0
aI259
aI259
aI0
aI96
aI259
aI355
aI0
aI0
aI259
aI259
aI0
aI0
aI259
aI259
aI0
aI63
aI259
aI322
aI180
aI0
aI439
aI259
aI0
aI0
aI259
aI259
aI0
aI0
aI259
aI259
aI0
aI0
aI259
aI259
aI0
aI0
aI259
aI259
aI0
aI12
aI259
aI271
aI0
aI0
aI259
aI259
aI0
aI0
aI259
aI259
aI0
aI0
aI259
aI259
aI251
aI0
aI510
aI259
aI24
aI0
aI283
aI259
aI0
aI0
aI259
aI259
aI0
aI147
aI259
aI406
aI0
aI0
aI259
aI259
aI0
aI0
aI259
aI259
aI121
aI0
aI380
aI259
aI0
aI0
aI259
aI259
aI0
aI0
aI259
aI259
aI164
aI0
aI423
aI259
aI0
aI112
aI259
aI371
aI0
aI0
aI259
aI259
aI95
aI0
aI354
aI259
aI0
aI0
aI259
aI259
aI0
aI0
aI259
aI259
aI0
aI0
aI259
aI259
aI0
aI0
aI259
aI259
aI0
aI0
aI259
aI259
aI0
aI85
aI259
aI344
aI112
aI0
aI371
aI259
aI174
aI0
aI433
aI259
aI0
aI0
aI259
aI259
aI0
aI0
aI259
aI259
aI0
aI0
aI259
aI259
aI0
aI77
aI259
aI336
aI0
aI0
aI259
aI259
aI0
aI0
aI259
aI259
aI0
aI0
aI259
aI259
aI0
aI98
aI259
aI357
aI0
aI115
aI259
aI374
aI0
aI0
aI259
aI259
aI0
aI68
aI259
aI327
aI0
aI0
aI259
aI259
aI0
aI0
aI259
aI259
aI0
aI0
aI259
aI259
aI0
aI0
aI259
aI259
aI0
aI0
aI259
aI259
aI31
aI139
aI290
aI398
aI0
aI0
aI259
aI259
aI0
aI162
aI259
aI421
aI133
aI214
aI392
aI473
aI0
aI0
aI259
aI259
aI0
aI0
aI259
aI259
aI104
aI0
aI363
aI259
aI0
aI0
aI259
aI259
aI0
aI0
aI259
aI259
aI0
aI0
aI259
aI259
aI0
aI0
aI259
aI259
aI0
aI0
aI259
aI259
aI0
aI0
aI259
aI259
aI0
aI0
aI259
aI259
aI134
aI0
aI393
aI259
aI133
aI0
aI392
aI259
aI223
aI0
aI482
aI259
aI0
aI193
aI259
aI452
aI226
aI0
aI485
aI259
aI0
aI98
aI259
aI357
aI0
aI0
aI259
aI259
aI0
aI0
aI259
aI259
aI0
aI0
aI259
aI259
aI0
aI0
aI259
aI259
aI0
aI0
aI259
aI259
aI0
aI60
aI259
aI319
aI0
aI127
aI259
aI386
aI0
aI0
aI259
aI259
aI0
aI0
aI259
aI259
aI0
aI0
aI259
aI259
aI0
aI0
aI259
aI259
aI0
aI0
aI259
aI259
aI0
aI0
aI259
aI259
aI0
aI0
aI259
aI259
aI0
aI0
aI259
aI259
aI0
aI0
aI259
aI259
aI0
aI0
aI259
aI259
aI66
aI0
aI325
aI259
aI0
aI0
aI259
aI259
aI74
aI0
aI333
aI259
aI214
aI0
aI473
aI259
aI0
aI0
aI259
aI259
aI0
aI0
aI259
aI259
aI42
aI0
aI301
aI259
aI254
aI0
aI513
aI259
aI72
aI0
aI331
aI259
aI0
aI0
aI259
aI259
aI0
aI0
aI259
aI259
aI0
aI0
aI259
aI259
aI0
aI0
aI259
aI259
aI111
aI0
aI370
aI259
aI0
aI184
aI259
aI443
aI0
aI0
aI259
aI259
aI0
aI0
aI259
aI259
aI0
aI0
aI259
aI259
aI133
aI0
aI392
aI259
aI0
aI0
aI259
aI259
aI0
aI0
aI259
aI259
aI0
aI0
aI259
aI259
aI0
aI0
aI259
aI259
aI216
aI0
aI475
aI259
aI0
aI105
aI259
aI364
aI0
aI0
aI259
aI259
aI0
aI28
aI259
aI287
aI0
aI29
aI259
aI288
aI0
aI0
aI259
aI259
aI0
aI0
aI259
aI259
aI0
aI207
aI259
aI466
aI0
aI112
aI259
aI371
aI0
aI0
aI259
aI259
aI0
aI0
aI259
aI259
aI0
aI0
aI259
aI259
aI0
aI0
aI259
aI259
aI38
aI0
aI297
aI259
aI39
aI0
aI298
aI259
aI0
aI0
aI259
aI259
aI0
aI167
aI259
aI426
aI0
aI176
aI259
aI435
aI0
aI84
aI259
aI343
aI0
aI0
aI259
aI259
aI0
aI0
aI259
aI259
aI0
aI0
aI259
aI259
aI0
aI0
aI259
aI259
aI0
aI0
aI259
aI259
aI0
aI0
aI259
aI259
aI0
aI64
aI259
aI323
aI0
aI237
aI259
aI496
aI0
aI0
aI259
aI259
aI0
aI0
aI259
aI259
aI0
aI27
aI259
aI286
aI97
aI102
aI356
aI361
aI0
aI0
aI259
aI259
aI118
aI0
aI377
aI259
aI0
aI0
aI259
aI259
aI0
aI238
aI259
aI497
aI186
aI3
aI445
aI262
aI146
aI33
aI405
aI292
aI0
aI0
aI259
aI259
aI0
aI0
aI259
aI259
aI0
aI179
aI259
aI438
aI0
aI0
aI259
aI259
aI158
aI0
aI417
aI259
aI0
aI0
aI259
aI259
aI0
aI240
aI259
aI499
aI0
aI0
aI259
aI259
aI0
aI0
aI259
aI259
aI0
aI0
aI259
aI259
aI0
aI0
aI259
aI259
aI241
aI24
aI500
aI283
aI215
aI0
aI474
aI259
aI0
aI0
aI259
aI259
aI0
aI0
aI259
aI259
aI0
aI0
aI259
aI259
aI0
aI0
aI259
aI259
aI0
aI0
aI259
aI259
aI0
aI0
aI259
aI259
aI0
aI0
aI259
aI259
aI0
aI0
aI259
aI259
aI0
aI0
aI259
aI259
aI0
aI84
aI259
aI343
aI0
aI0
aI259
aI259
aI0
aI0
aI259
aI259
aI0
aI0
aI259
aI259
aI0
aI0
aI259
aI259
aI0
aI171
aI259
aI430
aI0
aI45
aI259
aI304
aI0
aI99
aI259
aI358
aI0
aI0
aI259
aI259
aI0
aI0
aI259
aI259
aI0
aI0
aI259
aI259
aI0
aI0
aI259
aI259
aI32
aI0
aI291
aI259
aI0
aI0
aI259
aI259
aI0
aI0
aI259
aI259
aI0
aI0
aI259
aI259
aI0
aI0
aI259
aI259
aI0
aI0
aI259
aI259
aI0
aI177
aI259
aI436
aI229
aI247
aI488
aI506
aI0
aI0
aI259
aI259
aI0
aI0
aI259
aI259
aI0
aI0
aI259
aI259
aI0
aI0
aI259
aI259
aI0
aI0
aI259
aI259
aI35
aI0
aI294
aI259
aI0
aI0
aI259
aI259
aI0
aI0
aI259
aI259
aI0
aI0
aI259
aI259
aI221
aI0
aI480
aI259
aI0
aI0
aI259
aI259
aI176
aI0
aI435
aI259
aI0
aI0
aI259
aI259
aI33
aI0
aI292
aI259
aI0
aI0
aI259
aI259
aI0
aI0
aI259
aI259
aI0
aI0
aI259
aI259
aI0
aI250
aI259
aI509
aI57
aI0
aI316
aI259
aI0
aI0
aI259
aI259
aI208
aI0
aI467
aI259
aI0
aI0
aI259
aI259
aI0
aI106
aI259
aI365
aI0
aI178
aI259
aI437
aI0
aI0
aI259
aI259
aI0
aI0
aI259
aI259
aI0
aI0
aI259
aI259
aI208
aI0
aI467
aI259
aI0
aI0
aI259
aI259
aI98
aI0
aI357
aI259
aI0
aI0
aI259
aI259
aI0
aI0
aI259
aI259
aI0
aI0
aI259
aI259
aI0
aI0
aI259
aI259
aI0
aI0
aI259
aI259
aI0
aI243
aI259
aI502
aI0
aI170
aI259
aI429
aI0
aI0
aI259
aI259
aI0
aI71
aI259
aI330
aI0
aI0
aI259
aI259
aI0
aI0
aI259
aI259
aI0
aI192
aI259
aI451
aI0
aI0
aI259
aI259
aI0
aI253
aI259
aI512
aI0
aI0
aI259
aI259
aI165
aI0
aI424
aI259
aI0
aI0
aI259
aI259
aI0
aI33
aI259
aI292
aI0
aI0
aI259
aI259
aI27
aI0
aI286
aI259
aI173
aI0
aI432
aI259
aI0
aI0
aI259
aI259
aI0
aI0
aI259
aI259
aI0
aI79
aI259
aI338
aI0
aI0
aI259
aI259
aI218
aI228
aI477
aI487
aI0
aI0
aI259
aI259
aI0
aI0
aI259
aI259
aI0
aI0
aI259
aI259
aI0
aI0
aI259
aI259
aI0
aI0
aI259
aI259
aI0
aI0
aI259
aI259
aI0
aI0
aI259
aI259
aI0
aI0
aI259
aI259
aI0
aI0
aI259
aI259
aI0
aI161
aI259
aI420
aI0
aI0
aI259
aI259
aI0
aI93
aI259
aI352
aI0
aI0
aI259
aI259
aI0
aI0
aI259
aI259
aI3
aI0
aI262
aI259
aI0
aI0
aI259
aI259
aI0
aI0
aI259
aI259
aI0
aI0
aI259
aI259
aI0
aI57
aI259
aI316
aI0
aI160
aI259
aI419
aI0
aI0
aI259
aI259
aI0
aI0
aI259
aI259
aI123
aI0
aI382
aI259
aI0
aI0
aI259
aI259
aI0
aI0
aI259
aI259
aI0
aI0
aI259
aI259
aI0
aI0
aI259
aI259
aI13
aI0
aI272
aI259
aI239
aI158
aI498
aI417
aI213
aI206
aI472
aI465
aI0
aI0
aI259
aI259
aI0
aI0
aI259
aI259
aI137
aI0
aI396
aI259
aI30
aI92
aI289
aI351
aI0
aI161
aI259
aI420
aI0
aI0
aI259
aI259
aI0
aI0
aI259
aI259
aI0
aI0
aI259
aI259
aI0
aI0
aI259
aI259
aI0
aI0
aI259
aI259
aI0
aI201
aI259
aI460
aI0
aI0
aI259
aI259
aI0
aI0
aI259
aI259
aI184
aI0
aI443
aI259
aI0
aI145
aI259
aI404
aI0
aI44
aI259
aI303
aI0
aI0
aI259
aI259
aI0
aI0
aI259
aI259
aI0
aI0
aI259
aI259
aI0
aI0
aI259
aI259
aI0
aI0
aI259
aI259
aI0
aI0
aI259
aI259
aI0
aI0
aI259
aI259
aI0
aI257
aI259
aI516
aI0
aI0
aI259
aI259
aI0
aI0
aI259
aI259
aI0
aI0
aI259
aI259
aI0
aI0
aI259
aI259
aI98
aI67
aI357
aI326
aI0
aI68
aI259
aI327
aI0
aI0
aI259
aI259
aI0
aI0
aI259
aI259
aI0
aI0
aI259
aI259
aI0
aI0
aI259
aI259
aI0
aI0
aI259
aI259
aI0
aI0
aI259
aI259
aI0
aI0
aI259
aI259
aI0
aI0
aI259
aI259
aI0
aI0
aI259
aI259
aI143
aI0
aI402
aI259
aI92
aI0
aI351
aI259
aI0
aI0
aI259
aI259
aI0
aI0
aI259
aI259
aI0
aI0
aI259
aI259
aI0
aI0
aI259
aI259
aI0
aI0
aI259
aI259
aI0
aI0
aI259
aI259
aI0
aI0
aI259
aI259
aI0
aI0
aI259
aI259
aI0
aI163
aI259
aI422
aI0
aI0
aI259
aI259
aI0
aI97
aI259
aI356
aI27
aI0
aI286
aI259
aI38
aI0
aI297
aI259
aI39
aI72
aI298
aI331
aI80
aI0
aI339
aI259
aI0
aI0
aI259
aI259
aI0
aI73
aI259
aI332
aI0
aI0
aI259
aI259
aI0
aI251
aI259
aI510
aI217
aI0
aI476
aI259
aI0
aI0
aI259
aI259
aI229
aI0
aI488
aI259
aI88
aI0
aI347
aI259
aI0
aI0
aI259
aI259
aI0
aI131
aI259
aI390
aI0
aI0
aI259
aI259
aI0
aI110
aI259
aI369
aI0
aI211
aI259
aI470
aI0
aI0
aI259
aI259
aI193
aI123
aI452
aI382
aI0
aI0
aI259
aI259
aI0
aI0
aI259
aI259
aI0
aI0
aI259
aI259
aI0
aI0
aI259
aI259
aI140
aI0
aI399
aI259
aI0
aI0
aI259
aI259
aI0
aI0
aI259
aI259
aI171
aI0
aI430
aI259
aI0
aI0
aI259
aI259
aI0
aI0
aI259
aI259
aI69
aI0
aI328
aI259
aI70
aI0
aI329
aI259
aI0
aI0
aI259
aI259
aI0
aI0
aI259
aI259
aI0
aI0
aI259
aI259
aI0
aI0
aI259
aI259
aI0
aI51
aI259
aI310
aI0
aI52
aI259
aI311
aI0
aI0
aI259
aI259
aI0
aI216
aI259
aI475
aI0
aI0
aI259
aI259
aI0
aI0
aI259
aI259
aI240
aI0
aI499
aI259
aI0
aI0
aI259
aI259
aI159
aI0
aI418
aI259
aI0
aI0
aI259
aI259
aI43
aI237
aI302
aI496
aI192
aI127
aI451
aI386
aI0
aI0
aI259
aI259
aI0
aI0
aI259
aI259
aI0
aI0
aI259
aI259
aI0
aI0
aI259
aI259
aI89
aI0
aI348
aI259
aI0
aI0
aI259
aI259
aI0
aI0
aI259
aI259
aI0
aI0
aI259
aI259
aI166
aI0
aI425
aI259
aI0
aI0
aI259
aI259
aI0
aI0
aI259
aI259
aI0
aI0
aI259
aI259
aI0
aI0
aI259
aI259
aI45
aI0
aI304
aI259
aI46
aI0
aI305
aI259
aI0
aI0
aI259
aI259
aI0
aI0
aI259
aI259
aI0
aI0
aI259
aI259
aI69
aI0
aI328
aI259
aI84
aI0
aI343
aI259
aI0
aI0
aI259
aI259
aI0
aI127
aI259
aI386
aI0
aI0
aI259
aI259
aI132
aI140
aI391
aI399
aI0
aI196
aI259
aI455
aI0
aI0
aI259
aI259
aI252
aI0
aI511
aI259
aI23
aI0
aI282
aI259
aI24
aI83
aI283
aI342
aI0
aI0
aI259
aI259
aI0
aI0
aI259
aI259
aI0
aI0
aI259
aI259
aI0
aI0
aI259
aI259
aI0
aI0
aI259
aI259
aI127
aI0
aI386
aI259
aI0
aI199
aI259
aI458
aI0
aI0
aI259
aI259
aI0
aI0
aI259
aI259
aI0
aI0
aI259
aI259
aI0
aI0
aI259
aI259
aI0
aI0
aI259
aI259
aI0
aI0
aI259
aI259
aI167
aI0
aI426
aI259
aI0
aI0
aI259
aI259
aI0
aI0
aI259
aI259
aI0
aI0
aI259
aI259
aI0
aI0
aI259
aI259
aI0
aI0
aI259
aI259
aI0
aI0
aI259
aI259
aI0
aI0
aI259
aI259
aI0
aI172
aI259
aI431
aI0
aI0
aI259
aI259
aI0
aI0
aI259
aI259
aI0
aI0
aI259
aI259
aI227
aI0
aI486
aI259
aI91
aI0
aI350
aI259
aI4
aI0
aI263
aI259
aI5
aI0
aI264
aI259
aI0
aI69
aI259
aI328
aI0
aI70
aI259
aI329
aI0
aI176
aI259
aI435
aI0
aI208
aI259
aI467
aI0
aI0
aI259
aI259
aI229
aI0
aI488
aI259
aI0
aI0
aI259
aI259
aI0
aI153
aI259
aI412
aI150
aI0
aI409
aI259
aI0
aI0
aI259
aI259
aI0
aI0
aI259
aI259
aI0
aI0
aI259
aI259
aI0
aI0
aI259
aI259
aI0
aI0
aI259
aI259
aI90
aI0
aI349
aI259
aI0
aI0
aI259
aI259
aI0
aI0
aI259
aI259
aI0
aI37
aI259
aI296
aI0
aI109
aI259
aI368
aI0
aI0
aI259
aI259
aI0
aI0
aI259
aI259
aI0
aI0
aI259
aI259
aI136
aI102
aI395
aI361
aI198
aI0
aI457
aI259
aI0
aI0
aI259
aI259
aI0
aI170
aI259
aI429
aI0
aI0
aI259
aI259
aI0
aI67
aI259
aI326
aI0
aI68
aI259
aI327
aI0
aI0
aI259
aI259
aI0
aI0
aI259
aI259
aI0
aI0
aI259
aI259
aI28
aI0
aI287
aI259
aI205
aI0
aI464
aI259
aI0
aI122
aI259
aI381
aI0
aI0
aI259
aI259
aI0
aI0
aI259
aI259
aI0
aI211
aI259
aI470
aI0
aI0
aI259
aI259
aI0
aI0
aI259
aI259
aI0
aI0
aI259
aI259
aI0
aI139
aI259
aI398
aI123
aI0
aI382
aI259
aI0
aI123
aI259
aI382
aI0
aI0
aI259
aI259
aI0
aI0
aI259
aI259
aI0
aI0
aI259
aI259
aI0
aI191
aI259
aI450
aI0
aI0
aI259
aI259
aI0
aI0
aI259
aI259
aI0
aI0
aI259
aI259
aI0
aI83
aI259
aI342
aI4
aI0
aI263
aI259
aI5
aI0
aI264
aI259
aI14
aI0
aI273
aI259
aI25
aI0
aI284
aI259
aI0
aI0
aI259
aI259
aI0
aI0
aI259
aI259
aI0
aI0
aI259
aI259
aI0
aI0
aI259
aI259
aI0
aI0
aI259
aI259
aI0
aI0
aI259
aI259
aI0
aI180
aI259
aI439
aI0
aI0
aI259
aI259
aI0
aI0
aI259
aI259
aI0
aI12
aI259
aI271
aI0
aI0
aI259
aI259
aI0
aI0
aI259
aI259
aI0
aI0
aI259
aI259
aI0
aI0
aI259
aI259
aI0
aI0
aI259
aI259
aI0
aI0
aI259
aI259
aI0
aI0
aI259
aI259
aI0
aI0
aI259
aI259
aI0
aI0
aI259
aI259
aI0
aI0
aI259
aI259
aI0
aI0
aI259
aI259
aI0
aI0
aI259
aI259
aI0
aI0
aI259
aI259
aI0
aI0
aI259
aI259
aI0
aI54
aI259
aI313
aI30
aI55
aI289
aI314
aI0
aI0
aI259
aI259
aI153
aI0
aI412
aI259
aI0
aI0
aI259
aI259
aI0
aI0
aI259
aI259
aI0
aI0
aI259
aI259
aI223
aI0
aI482
aI259
aI155
aI0
aI414
aI259
aI0
aI186
aI259
aI445
aI0
aI0
aI259
aI259
aI0
aI1
aI259
aI260
aI0
aI6
aI259
aI265
aI154
aI7
aI413
aI266
aI0
aI0
aI259
aI259
aI0
aI0
aI259
aI259
aI0
aI0
aI259
aI259
aI0
aI0
aI259
aI259
aI184
aI0
aI443
aI259
aI148
aI82
aI407
aI341
aI0
aI0
aI259
aI259
aI0
aI0
aI259
aI259
aI0
aI0
aI259
aI259
aI0
aI0
aI259
aI259
aI0
aI126
aI259
aI385
aI0
aI0
aI259
aI259
aI0
aI0
aI259
aI259
aI0
aI0
aI259
aI259
aI0
aI237
aI259
aI496
aI0
aI0
aI259
aI259
aI0
aI0
aI259
aI259
aI0
aI0
aI259
aI259
aI0
aI0
aI259
aI259
aI0
aI0
aI259
aI259
aI56
aI0
aI315
aI259
aI0
aI5
aI259
aI264
aI0
aI0
aI259
aI259
aI0
aI0
aI259
aI259
aI0
aI0
aI259
aI259
aI0
aI0
aI259
aI259
aI0
aI0
aI259
aI259
aI243
aI0
aI502
aI259
aI77
aI42
aI336
aI301
aI0
aI0
aI259
aI259
aI86
aI0
aI345
aI259
aI0
aI0
aI259
aI259
aI0
aI0
aI259
aI259
aI0
aI0
aI259
aI259
aI0
aI0
aI259
aI259
aI0
aI0
aI259
aI259
aI0
aI0
aI259
aI259
aI0
aI0
aI259
aI259
aI0
aI0
aI259
aI259
aI0
aI0
aI259
aI259
aI218
aI0
aI477
aI259
aI0
aI0
aI259
aI259
aI0
aI0
aI259
aI259
aI0
aI0
aI259
aI259
aI0
aI0
aI259
aI259
aI60
aI0
aI319
aI259
aI61
aI0
aI320
aI259
aI0
aI0
aI259
aI259
aI0
aI0
aI259
aI259
aI0
aI15
aI259
aI274
aI0
aI16
aI259
aI275
aI0
aI0
aI259
aI259
aI0
aI0
aI259
aI259
aI154
aI0
aI413
aI259
aI0
aI0
aI259
aI259
aI0
aI0
aI259
aI259
aI0
aI0
aI259
aI259
aI0
aI140
aI259
aI399
aI0
aI0
aI259
aI259
aI0
aI0
aI259
aI259
aI0
aI0
aI259
aI259
aI0
aI0
aI259
aI259
aI0
aI0
aI259
aI259
aI0
aI0
aI259
aI259
aI0
aI0
aI259
aI259
aI149
aI0
aI408
aI259
aI0
aI0
aI259
aI259
aI0
aI0
aI259
aI259
aI0
aI0
aI259
aI259
aI175
aI209
aI434
aI468
aI102
aI0
aI361
aI259
aI0
aI0
aI259
aI259
aI23
aI0
aI282
aI259
aI121
aI0
aI380
aI259
aI0
aI154
aI259
aI413
aI0
aI0
aI259
aI259
aI0
aI0
aI259
aI259
aI0
aI146
aI259
aI405
aI0
aI0
aI259
aI259
aI0
aI0
aI259
aI259
aI40
aI188
aI299
aI447
aI0
aI0
aI259
aI259
aI0
aI0
aI259
aI259
aI0
aI0
aI259
aI259
aI0
aI0
aI259
aI259
aI0
aI0
aI259
aI259
aI0
aI0
aI259
aI259
aI0
aI0
aI259
aI259
aI0
aI0
aI259
aI259
aI0
aI111
aI259
aI370
aI232
aI0
aI491
aI259
aI0
aI0
aI259
aI259
aI0
aI0
aI259
aI259
aI0
aI124
aI259
aI383
aI0
aI0
aI259
aI259
aI0
aI0
aI259
aI259
aI59
aI0
aI318
aI259
aI0
aI0
aI259
aI259
aI0
aI0
aI259
aI259
aI0
aI0
aI259
aI259
aI0
aI0
aI259
aI259
aI0
aI0
aI259
aI259
aI0
aI0
aI259
aI259
aI0
aI0
aI259
aI259
aI0
aI0
aI259
aI259
aI0
aI0
aI259
aI259
aI0
aI126
aI259
aI385
aI0
aI196
aI259
aI455
aI233
aI237
aI492
aI496
aI0
aI0
aI259
aI259
aI0
aI0
aI259
aI259
aI0
aI0
aI259
aI259
aI0
aI5
aI259
aI264
aI142
aI0
aI401
aI259
aI0
aI252
aI259
aI511
aI0
aI0
aI259
aI259
aI0
aI0
aI259
aI259
aI229
aI0
aI488
aI259
aI0
aI0
aI259
aI259
aI0
aI0
aI259
aI259
aI0
aI0
aI259
aI259
aI0
aI40
aI259
aI299
aI0
aI0
aI259
aI259
aI38
aI0
aI297
aI259
aI39
aI0
aI298
aI259
aI70
aI0
aI329
aI259
aI0
aI0
aI259
aI259
aI0
aI119
aI259
aI378
aI0
aI0
aI259
aI259
aI0
aI0
aI259
aI259
aI0
aI0
aI259
aI259
aI0
aI0
aI259
aI259
aI0
aI0
aI259
aI259
aI0
aI0
aI259
aI259
aI18
aI0
aI277
aI259
aI0
aI0
aI259
aI259
aI0
aI0
aI259
aI259
aI0
aI0
aI259
aI259
aI0
aI0
aI259
aI259
aI0
aI80
aI259
aI339
aI258
aI0
aI517
aI259
aI0
aI0
aI259
aI259
aI0
aI0
aI259
aI259
aI0
aI256
aI259
aI515
aI0
aI0
aI259
aI259
aI0
aI0
aI259
aI259
aI0
aI0
aI259
aI259
aI0
aI0
aI259
aI259
aI0
aI0
aI259
aI259
aI157
aI0
aI416
aI259
aI0
aI0
aI259
aI259
aI0
aI0
aI259
aI259
aI0
aI254
aI259
aI513
aI0
aI0
aI259
aI259
aI159
aI0
aI418
aI259
aI0
aI228
aI259
aI487
aI7
aI0
aI266
aI259
aI60
aI0
aI319
aI259
aI61
aI0
aI320
aI259
aI0
aI0
aI259
aI259
aI85
aI0
aI344
aI259
aI0
aI0
aI259
aI259
aI0
aI0
aI259
aI259
aI0
aI0
aI259
aI259
aI0
aI190
aI259
aI449
aI0
aI0
aI259
aI259
aI117
aI239
aI376
aI498
aI0
aI0
aI259
aI259
aI0
aI21
aI259
aI280
aI0
aI0
aI259
aI259
aI0
aI0
aI259
aI259
aI0
aI0
aI259
aI259
aI0
aI0
aI259
aI259
aI0
aI0
aI259
aI259
aI0
aI0
aI259
aI259
aI236
aI0
aI495
aI259
aI0
aI0
aI259
aI259
aI0
aI0
aI259
aI259
aI0
aI0
aI259
aI259
aI77
aI0
aI336
aI259
aI0
aI0
aI259
aI259
aI172
aI0
aI431
aI259
aI176
aI0
aI435
aI259
aI249
aI0
aI508
aI259
aI0
aI0
aI259
aI259
aI0
aI56
aI259
aI315
aI250
aI0
aI509
aI259
aI0
aI0
aI259
aI259
aI0
aI0
aI259
aI259
aI0
aI0
aI259
aI259
aI0
aI0
aI259
aI259
aI0
aI0
aI259
aI259
aI0
aI0
aI259
aI259
aI75
aI174
aI334
aI433
aI0
aI200
aI259
aI459
aI0
aI0
aI259
aI259
aI0
aI0
aI259
aI259
aI0
aI0
aI259
aI259
aI70
aI0
aI329
aI259
aI0
aI0
aI259
aI259
aI0
aI179
aI259
aI438
aI0
aI0
aI259
aI259
aI0
aI0
aI259
aI259
aI0
aI0
aI259
aI259
aI0
aI102
aI259
aI361
aI0
aI0
aI259
aI259
aI0
aI0
aI259
aI259
aI0
aI0
aI259
aI259
aI0
aI0
aI259
aI259
aI0
aI0
aI259
aI259
aI0
aI131
aI259
aI390
aI162
aI0
aI421
aI259
aI0
aI0
aI259
aI259
aI0
aI0
aI259
aI259
aI249
aI0
aI508
aI259
aI0
aI0
aI259
aI259
aI0
aI80
aI259
aI339
aI0
aI0
aI259
aI259
aI0
aI51
aI259
aI310
aI0
aI8
aI259
aI267
aI0
aI188
aI259
aI447
aI127
aI256
aI386
aI515
aI0
aI116
aI259
aI375
aI0
aI0
aI259
aI259
aI0
aI0
aI259
aI259
aI138
aI0
aI397
aI259
aI0
aI0
aI259
aI259
aI230
aI0
aI489
aI259
aI0
aI177
aI259
aI436
aI0
aI0
aI259
aI259
aI0
aI0
aI259
aI259
aI36
aI0
aI295
aI259
aI162
aI0
aI421
aI259
aI0
aI0
aI259
aI259
aI0
aI0
aI259
aI259
aI0
aI208
aI259
aI467
aI0
aI148
aI259
aI407
aI0
aI0
aI259
aI259
aI0
aI0
aI259
aI259
aI0
aI0
aI259
aI259
aI91
aI0
aI350
aI259
aI193
aI0
aI452
aI259
aI0
aI0
aI259
aI259
aI0
aI0
aI259
aI259
aI61
aI0
aI320
aI259
aI0
aI0
aI259
aI259
aI0
aI0
aI259
aI259
aI0
aI225
aI259
aI484
aI0
aI0
aI259
aI259
aI0
aI0
aI259
aI259
aI0
aI0
aI259
aI259
aI0
aI53
aI259
aI312
aI42
aI56
aI301
aI315
aI0
aI0
aI259
aI259
aI0
aI0
aI259
aI259
aI0
aI0
aI259
aI259
aI0
aI0
aI259
aI259
aI0
aI0
aI259
aI259
aI0
aI0
aI259
aI259
aI0
aI0
aI259
aI259
aI0
aI0
aI259
aI259
aI146
aI0
aI405
aI259
aI0
aI0
aI259
aI259
aI0
aI72
aI259
aI331
aI0
aI226
aI259
aI485
aI0
aI0
aI259
aI259
aI0
aI0
aI259
aI259
aI0
aI0
aI259
aI259
aI0
aI0
aI259
aI259
aI0
aI0
aI259
aI259
aI0
aI0
aI259
aI259
aI0
aI0
aI259
aI259
aI155
aI0
aI414
aI259
aI0
aI80
aI259
aI339
aI96
aI0
aI355
aI259
aI0
aI0
aI259
aI259
aI0
aI0
aI259
aI259
aI0
aI0
aI259
aI259
aI0
aI0
aI259
aI259
aI0
aI0
aI259
aI259
aI0
aI0
aI259
aI259
aI0
aI0
aI259
aI259
aI0
aI0
aI259
aI259
aI121
aI0
aI380
aI259
aI0
aI0
aI259
aI259
aI96
aI0
aI355
aI259
aI64
aI0
aI323
aI259
aI196
aI0
aI455
aI259
aI0
aI0
aI259
aI259
aI0
aI0
aI259
aI259
aI76
aI70
aI335
aI329
aI0
aI0
aI259
aI259
aI186
aI0
aI445
aI259
aI86
aI0
aI345
aI259
aI0
aI16
aI259
aI275
aI0
aI0
aI259
aI259
aI0
aI0
aI259
aI259
aI226
aI254
aI485
aI513
aI0
aI0
aI259
aI259
aI133
aI0
aI392
aI259
aI151
aI0
aI410
aI259
aI0
aI0
aI259
aI259
aI0
aI203
aI259
aI462
aI0
aI0
aI259
aI259
aI0
aI0
aI259
aI259
aI0
aI32
aI259
aI291
aI0
aI0
aI259
aI259
aI0
aI0
aI259
aI259
aI0
aI0
aI259
aI259
aI0
aI0
aI259
aI259
aI0
aI0
aI259
aI259
aI0
aI0
aI259
aI259
aI10
aI0
aI269
aI259
aI173
aI0
aI432
aI259
aI27
aI0
aI286
aI259
aI38
aI0
aI297
aI259
aI39
aI0
aI298
aI259
aI0
aI28
aI259
aI287
aI0
aI29
aI259
aI288
aI0
aI0
aI259
aI259
aI0
aI177
aI259
aI436
aI186
aI0
aI445
aI259
aI0
aI0
aI259
aI259
aI0
aI0
aI259
aI259
aI0
aI0
aI259
aI259
aI0
aI170
aI259
aI429
aI0
aI0
aI259
aI259
aI0
aI88
aI259
aI347
aI15
aI201
aI274
aI460
aI16
aI0
aI275
aI259
aI0
aI0
aI259
aI259
aI0
aI0
aI259
aI259
aI0
aI0
aI259
aI259
aI78
aI0
aI337
aI259
aI113
aI0
aI372
aI259
aI129
aI0
aI388
aI259
aI229
aI0
aI488
aI259
aI0
aI136
aI259
aI395
aI0
aI0
aI259
aI259
aI0
aI0
aI259
aI259
aI0
aI189
aI259
aI448
aI0
aI0
aI259
aI259
aI84
aI0
aI343
aI259
aI24
aI0
aI283
aI259
aI0
aI176
aI259
aI435
aI0
aI0
aI259
aI259
aI252
aI0
aI511
aI259
aI0
aI0
aI259
aI259
aI0
aI0
aI259
aI259
aI0
aI0
aI259
aI259
aI0
aI0
aI259
aI259
aI0
aI0
aI259
aI259
aI0
aI0
aI259
aI259
aI0
aI0
aI259
aI259
aI0
aI0
aI259
aI259
aI0
aI0
aI259
aI259
aI0
aI0
aI259
aI259
aI0
aI0
aI259
aI259
aI0
aI0
aI259
aI259
aI0
aI0
aI259
aI259
aI0
aI0
aI259
aI259
aI21
aI0
aI280
aI259
aI0
aI0
aI259
aI259
aI52
aI101
aI311
aI360
aI0
aI0
aI259
aI259
aI109
aI0
aI368
aI259
aI0
aI0
aI259
aI259
aI0
aI0
aI259
aI259
aI0
aI0
aI259
aI259
aI0
aI0
aI259
aI259
aI0
aI0
aI259
aI259
aI200
aI0
aI459
aI259
aI195
aI0
aI454
aI259
aI0
aI0
aI259
aI259
aI0
aI0
aI259
aI259
aI0
aI0
aI259
aI259
aI57
aI0
aI316
aI259
aI194
aI0
aI453
aI259
aI0
aI0
aI259
aI259
aI0
aI0
aI259
aI259
aI10
aI0
aI269
aI259
aI11
aI0
aI270
aI259
aI0
aI0
aI259
aI259
aI150
aI0
aI409
aI259
aI233
aI208
aI492
aI467
aI0
aI0
aI259
aI259
aI0
aI0
aI259
aI259
aI170
aI0
aI429
aI259
aI0
aI0
aI259
aI259
aI0
aI0
aI259
aI259
aI124
aI23
aI383
aI282
aI0
aI86
aI259
aI345
aI236
aI0
aI495
aI259
aI0
aI45
aI259
aI304
aI0
aI25
aI259
aI284
aI0
aI0
aI259
aI259
aI0
aI0
aI259
aI259
aI0
aI0
aI259
aI259
aI0
aI0
aI259
aI259
aI0
aI0
aI259
aI259
aI159
aI0
aI418
aI259
aI0
aI80
aI259
aI339
aI0
aI0
aI259
aI259
aI0
aI0
aI259
aI259
aI0
aI0
aI259
aI259
aI0
aI0
aI259
aI259
aI0
aI0
aI259
aI259
aI0
aI0
aI259
aI259
aI0
aI0
aI259
aI259
aI0
aI0
aI259
aI259
aI0
aI0
aI259
aI259
aI0
aI148
aI259
aI407
aI0
aI0
aI259
aI259
aI0
aI0
aI259
aI259
aI0
aI0
aI259
aI259
aI0
aI0
aI259
aI259
aI0
aI0
aI259
aI259
aI0
aI0
aI259
aI259
aI0
aI139
aI259
aI398
aI0
aI0
aI259
aI259
aI139
aI24
aI398
aI283
aI0
aI0
aI259
aI259
aI0
aI0
aI259
aI259
aI0
aI0
aI259
aI259
aI102
aI0
aI361
aI259
aI0
aI0
aI259
aI259
aI0
aI0
aI259
aI259
aI0
aI162
aI259
aI421
aI0
aI0
aI259
aI259
aI0
aI188
aI259
aI447
aI0
aI0
aI259
aI259
aI0
aI0
aI259
aI259
aI0
aI0
aI259
aI259
aI0
aI104
aI259
aI363
aI0
aI0
aI259
aI259
aI101
aI96
aI360
aI355
aI0
aI0
aI259
aI259
aI0
aI0
aI259
aI259
aI159
aI0
aI418
aI259
aI0
aI0
aI259
aI259
aI0
aI0
aI259
aI259
aI0
aI0
aI259
aI259
aI0
aI0
aI259
aI259
aI0
aI0
aI259
aI259
aI0
aI0
aI259
aI259
aI0
aI0
aI259
aI259
aI0
aI62
aI259
aI321
aI0
aI0
aI259
aI259
aI0
aI0
aI259
aI259
aI73
aI0
aI332
aI259
aI214
aI0
aI473
aI259
aI0
aI48
aI259
aI307
aI147
aI0
aI406
aI259
aI0
aI8
aI259
aI267
aI0
aI247
aI259
aI506
aI0
aI0
aI259
aI259
aI0
aI0
aI259
aI259
aI0
aI0
aI259
aI259
aI0
aI0
aI259
aI259
aI0
aI0
aI259
aI259
aI128
aI0
aI387
aI259
aI0
aI205
aI259
aI464
aI0
aI0
aI259
aI259
aI0
aI0
aI259
aI259
aI0
aI64
aI259
aI323
aI0
aI0
aI259
aI259
aI0
aI0
aI259
aI259
aI0
aI127
aI259
aI386
aI0
aI213
aI259
aI472
aI0
aI0
aI259
aI259
aI0
aI0
aI259
aI259
aI197
aI0
aI456
aI259
aI0
aI0
aI259
aI259
aI0
aI0
aI259
aI259
aI0
aI0
aI259
aI259
aI0
aI0
aI259
aI259
aI183
aI54
aI442
aI313
aI0
aI64
aI259
aI323
aI0
aI0
aI259
aI259
aI0
aI0
aI259
aI259
aI0
aI0
aI259
aI259
aI0
aI0
aI259
aI259
aI0
aI0
aI259
aI259
aI0
aI0
aI259
aI259
aI0
aI20
aI259
aI279
aI0
aI0
aI259
aI259
aI0
aI0
aI259
aI259
aI0
aI0
aI259
aI259
aI0
aI0
aI259
aI259
aI10
aI38
aI269
aI297
aI256
aI39
aI515
aI298
aI125
aI0
aI384
aI259
aI22
aI119
aI281
aI378
aI0
aI0
aI259
aI259
aI0
aI28
aI259
aI287
aI0
aI29
aI259
aI288
aI40
aI0
aI299
aI259
aI0
aI0
aI259
aI259
aI0
aI249
aI259
aI508
aI129
aI78
aI388
aI337
aI0
aI0
aI259
aI259
aI233
aI160
aI492
aI419
aI93
aI0
aI352
aI259
aI0
aI0
aI259
aI259
aI0
aI0
aI259
aI259
aI0
aI0
aI259
aI259
aI0
aI0
aI259
aI259
aI0
aI0
aI259
aI259
aI0
aI0
aI259
aI259
aI0
aI0
aI259
aI259
aI136
aI0
aI395
aI259
aI0
aI0
aI259
aI259
aI0
aI0
aI259
aI259
aI0
aI123
aI259
aI382
aI0
aI0
aI259
aI259
aI0
aI0
aI259
aI259
aI198
aI0
aI457
aI259
aI0
aI0
aI259
aI259
aI0
aI253
aI259
aI512
aI0
aI0
aI259
aI259
aI0
aI92
aI259
aI351
aI0
aI28
aI259
aI287
aI94
aI29
aI353
aI288
aI0
aI0
aI259
aI259
aI0
aI238
aI259
aI497
aI41
aI0
aI300
aI259
aI42
aI0
aI301
aI259
aI0
aI0
aI259
aI259
aI0
aI0
aI259
aI259
aI0
aI0
aI259
aI259
aI0
aI0
aI259
aI259
aI161
aI0
aI420
aI259
aI0
aI0
aI259
aI259
aI0
aI0
aI259
aI259
aI0
aI242
aI259
aI501
aI0
aI123
aI259
aI382
aI0
aI0
aI259
aI259
aI0
aI0
aI259
aI259
aI0
aI0
aI259
aI259
aI0
aI66
aI259
aI325
aI0
aI0
aI259
aI259
aI0
aI0
aI259
aI259
aI0
aI0
aI259
aI259
aI0
aI0
aI259
aI259
aI0
aI0
aI259
aI259
aI0
aI0
aI259
aI259
aI0
aI0
aI259
aI259
aI69
aI0
aI328
aI259
aI70
aI0
aI329
aI259
aI0
aI0
aI259
aI259
aI0
aI0
aI259
aI259
aI0
aI0
aI259
aI259
aI0
aI158
aI259
aI417
aI0
aI139
aI259
aI398
aI0
aI0
aI259
aI259
aI164
aI193
aI423
aI452
aI0
aI0
aI259
aI259
aI0
aI0
aI259
aI259
aI0
aI0
aI259
aI259
aI0
aI0
aI259
aI259
aI0
aI237
aI259
aI496
aI0
aI22
aI259
aI281
aI0
aI0
aI259
aI259
aI0
aI0
aI259
aI259
aI221
aI0
aI480
aI259
aI0
aI0
aI259
aI259
aI0
aI0
aI259
aI259
aI0
aI0
aI259
aI259
aI0
aI0
aI259
aI259
aI0
aI120
aI259
aI379
aI0
aI0
aI259
aI259
aI0
aI0
aI259
aI259
aI0
aI4
aI259
aI263
aI215
aI5
aI474
aI264
aI0
aI0
aI259
aI259
aI0
aI71
aI259
aI330
aI117
aI0
aI376
aI259
aI0
aI0
aI259
aI259
aI0
aI0
aI259
aI259
aI0
aI0
aI259
aI259
aI0
aI0
aI259
aI259
aI0
aI0
aI259
aI259
aI0
aI0
aI259
aI259
aI0
aI0
aI259
aI259
aI0
aI0
aI259
aI259
aI172
aI0
aI431
aI259
aI0
aI0
aI259
aI259
aI0
aI0
aI259
aI259
aI0
aI0
aI259
aI259
aI0
aI0
aI259
aI259
aI0
aI0
aI259
aI259
aI0
aI0
aI259
aI259
aI0
aI134
aI259
aI393
aI0
aI0
aI259
aI259
aI0
aI0
aI259
aI259
aI0
aI0
aI259
aI259
aI0
aI0
aI259
aI259
aI0
aI0
aI259
aI259
aI0
aI0
aI259
aI259
aI0
aI0
aI259
aI259
aI0
aI0
aI259
aI259
aI0
aI0
aI259
aI259
aI0
aI0
aI259
aI259
aI0
aI0
aI259
aI259
aI0
aI0
aI259
aI259
aI0
aI0
aI259
aI259
aI33
aI0
aI292
aI259
aI0
aI0
aI259
aI259
aI0
aI0
aI259
aI259
aI0
aI0
aI259
aI259
aI2
aI0
aI261
aI259
aI3
aI0
aI262
aI259
aI0
aI0
aI259
aI259
aI0
aI0
aI259
aI259
aI0
aI0
aI259
aI259
aI0
aI178
aI259
aI437
aI0
aI0
aI259
aI259
aI175
aI168
aI434
aI427
aI0
aI0
aI259
aI259
aI0
aI0
aI259
aI259
aI0
aI0
aI259
aI259
aI0
aI0
aI259
aI259
aI0
aI0
aI259
aI259
aI0
aI0
aI259
aI259
aI0
aI0
aI259
aI259
aI0
aI0
aI259
aI259
aI0
aI0
aI259
aI259
aI16
aI0
aI275
aI259
aI0
aI0
aI259
aI259
aI0
aI0
aI259
aI259
aI0
aI0
aI259
aI259
aI139
aI0
aI398
aI259
aI0
aI0
aI259
aI259
aI0
aI0
aI259
aI259
aI0
aI0
aI259
aI259
aI0
aI0
aI259
aI259
aI0
aI0
aI259
aI259
aI0
aI0
aI259
aI259
aI0
aI0
aI259
aI259
aI0
aI0
aI259
aI259
aI36
aI0
aI295
aI259
aI37
aI0
aI296
aI259
aI0
aI0
aI259
aI259
aI0
aI225
aI259
aI484
aI0
aI0
aI259
aI259
aI0
aI0
aI259
aI259
aI0
aI0
aI259
aI259
aI0
aI0
aI259
aI259
aI0
aI0
aI259
aI259
aI82
aI0
aI341
aI259
aI0
aI0
aI259
aI259
aI0
aI0
aI259
aI259
aI20
aI0
aI279
aI259
aI0
aI0
aI259
aI259
aI0
aI0
aI259
aI259
aI0
aI129
aI259
aI388
aI0
aI0
aI259
aI259
aI0
aI0
aI259
aI259
aI0
aI254
aI259
aI513
aI149
aI215
aI408
aI474
aI0
aI138
aI259
aI397
aI0
aI0
aI259
aI259
aI0
aI0
aI259
aI259
aI0
aI0
aI259
aI259
aI0
aI0
aI259
aI259
aI0
aI0
aI259
aI259
aI0
aI0
aI259
aI259
aI208
aI1
aI467
aI260
aI174
aI2
aI433
aI261
aI0
aI3
aI259
aI262
aI0
aI0
aI259
aI259
aI0
aI0
aI259
aI259
aI0
aI0
aI259
aI259
aI0
aI0
aI259
aI259
aI0
aI0
aI259
aI259
aI0
aI0
aI259
aI259
aI0
aI0
aI259
aI259
aI0
aI0
aI259
aI259
aI0
aI0
aI259
aI259
aI0
aI0
aI259
aI259
aI0
aI0
aI259
aI259
aI0
aI191
aI259
aI450
aI0
aI0
aI259
aI259
aI170
aI85
aI429
aI344
aI0
aI204
aI259
aI463
aI0
aI0
aI259
aI259
aI0
aI0
aI259
aI259
aI0
aI0
aI259
aI259
aI0
aI0
aI259
aI259
aI0
aI0
aI259
aI259
aI0
aI187
aI259
aI446
aI0
aI0
aI259
aI259
aI0
aI0
aI259
aI259
aI70
aI0
aI329
aI259
aI0
aI0
aI259
aI259
aI0
aI0
aI259
aI259
aI0
aI50
aI259
aI309
aI0
aI0
aI259
aI259
aI0
aI63
aI259
aI322
aI0
aI0
aI259
aI259
aI0
aI16
aI259
aI275
aI110
aI0
aI369
aI259
aI15
aI0
aI274
aI259
aI16
aI235
aI275
aI494
aI216
aI0
aI475
aI259
aI188
aI0
aI447
aI259
aI0
aI0
aI259
aI259
aI0
aI128
aI259
aI387
aI0
aI129
aI259
aI388
aI237
aI258
aI496
aI517
aI0
aI0
aI259
aI259
aI0
aI0
aI259
aI259
aI0
aI0
aI259
aI259
aI0
aI0
aI259
aI259
aI0
aI57
aI259
aI316
aI0
aI0
aI259
aI259
aI0
aI0
aI259
aI259
aI0
aI40
aI259
aI299
aI126
aI0
aI385
aI259
aI244
aI0
aI503
aI259
aI212
aI0
aI471
aI259
aI0
aI36
aI259
aI295
aI0
aI37
aI259
aI296
aI0
aI217
aI259
aI476
aI0
aI0
aI259
aI259
aI0
aI0
aI259
aI259
aI207
aI0
aI466
aI259
aI0
aI0
aI259
aI259
aI0
aI0
aI259
aI259
aI0
aI257
aI259
aI516
aI151
aI36
aI410
aI295
aI0
aI37
aI259
aI296
aI0
aI0
aI259
aI259
aI166
aI0
aI425
aI259
aI0
aI0
aI259
aI259
aI0
aI15
aI259
aI274
aI133
aI16
aI392
aI275
aI0
aI0
aI259
aI259
aI0
aI0
aI259
aI259
aI0
aI0
aI259
aI259
aI0
aI0
aI259
aI259
aI0
aI0
aI259
aI259
aI169
aI0
aI428
aI259
aI0
aI0
aI259
aI259
aI0
aI0
aI259
aI259
aI0
aI0
aI259
aI259
aI0
aI0
aI259
aI259
aI0
aI0
aI259
aI259
aI0
aI0
aI259
aI259
aI0
aI0
aI259
aI259
aI0
aI171
aI259
aI430
aI0
aI128
aI259
aI387
aI151
aI76
aI410
aI335
aI0
aI65
aI259
aI324
aI0
aI0
aI259
aI259
aI0
aI0
aI259
aI259
aI160
aI0
aI419
aI259
aI0
aI0
aI259
aI259
aI0
aI0
aI259
aI259
aI0
aI0
aI259
aI259
aI188
aI106
aI447
aI365
aI0
aI0
aI259
aI259
aI32
aI223
aI291
aI482
aI0
aI255
aI259
aI514
aI0
aI0
aI259
aI259
aI0
aI0
aI259
aI259
aI0
aI0
aI259
aI259
aI161
aI204
aI420
aI463
aI0
aI0
aI259
aI259
aI60
aI0
aI319
aI259
aI51
aI0
aI310
aI259
aI52
aI0
aI311
aI259
aI0
aI0
aI259
aI259
aI0
aI0
aI259
aI259
aI222
aI0
aI481
aI259
aI0
aI0
aI259
aI259
aI0
aI0
aI259
aI259
aI207
aI0
aI466
aI259
aI0
aI0
aI259
aI259
aI212
aI0
aI471
aI259
aI0
aI0
aI259
aI259
aI0
aI0
aI259
aI259
aI0
aI118
aI259
aI377
aI0
aI0
aI259
aI259
aI0
aI60
aI259
aI319
aI0
aI61
aI259
aI320
aI0
aI0
aI259
aI259
aI0
aI0
aI259
aI259
aI0
aI0
aI259
aI259
aI0
aI0
aI259
aI259
aI0
aI0
aI259
aI259
aI0
aI0
aI259
aI259
aI0
aI0
aI259
aI259
aI0
aI0
aI259
aI259
aI0
aI183
aI259
aI442
aI86
aI212
aI345
aI471
aI0
aI67
aI259
aI326
aI133
aI68
aI392
aI327
aI0
aI130
aI259
aI389
aI0
aI0
aI259
aI259
aI0
aI0
aI259
aI259
aI136
aI0
aI395
aI259
aI0
aI0
aI259
aI259
aI0
aI94
aI259
aI353
aI0
aI0
aI259
aI259
aI0
aI0
aI259
aI259
aI0
aI0
aI259
aI259
aI0
aI7
aI259
aI266
aI0
aI0
aI259
aI259
aI0
aI0
aI259
aI259
aI0
aI0
aI259
aI259
aI0
aI0
aI259
aI259
aI252
aI0
aI511
aI259
aI0
aI0
aI259
aI259
aI0
aI0
aI259
aI259
aI0
aI0
aI259
aI259
aI0
aI0
aI259
aI259
aI0
aI0
aI259
aI259
aI0
aI0
aI259
aI259
aI4
aI0
aI263
aI259
aI5
aI0
aI264
aI259
aI0
aI0
aI259
aI259
aI119
aI42
aI378
aI301
aI69
aI0
aI328
aI259
aI70
aI0
aI329
aI259
aI0
aI0
aI259
aI259
aI194
aI0
aI453
aI259
aI0
aI0
aI259
aI259
aI0
aI0
aI259
aI259
aI0
aI0
aI259
aI259
aI0
aI0
aI259
aI259
aI0
aI0
aI259
aI259
aI0
aI0
aI259
aI259
aI0
aI42
aI259
aI301
aI0
aI0
aI259
aI259
aI0
aI0
aI259
aI259
aI93
aI0
aI352
aI259
aI4
aI0
aI263
aI259
aI5
aI0
aI264
aI259
aI0
aI0
aI259
aI259
aI0
aI0
aI259
aI259
aI0
aI0
aI259
aI259
aI0
aI0
aI259
aI259
aI0
aI0
aI259
aI259
aI173
aI0
aI432
aI259
aI0
aI0
aI259
aI259
aI0
aI0
aI259
aI259
aI0
aI121
aI259
aI380
aI0
aI0
aI259
aI259
aI180
aI0
aI439
aI259
aI0
aI0
aI259
aI259
aI0
aI0
aI259
aI259
aI0
aI0
aI259
aI259
aI0
aI0
aI259
aI259
aI0
aI164
aI259
aI423
aI0
aI0
aI259
aI259
aI0
aI0
aI259
aI259
aI0
aI0
aI259
aI259
aI0
aI0
aI259
aI259
aI0
aI0
aI259
aI259
aI169
aI141
aI428
aI400
aI0
aI0
aI259
aI259
aI0
aI0
aI259
aI259
aI0
aI0
aI259
aI259
aI0
aI0
aI259
aI259
aI0
aI0
aI259
aI259
aI10
aI0
aI269
aI259
aI11
aI0
aI270
aI259
aI0
aI0
aI259
aI259
aI0
aI197
aI259
aI456
aI0
aI35
aI259
aI294
aI0
aI212
aI259
aI471
aI0
aI0
aI259
aI259
aI218
aI0
aI477
aI259
aI0
aI0
aI259
aI259
aI0
aI0
aI259
aI259
aI0
aI9
aI259
aI268
aI46
aI117
aI305
aI376
aI0
aI0
aI259
aI259
aI0
aI0
aI259
aI259
aI0
aI0
aI259
aI259
aI0
aI0
aI259
aI259
aI0
aI14
aI259
aI273
aI0
aI25
aI259
aI284
aI0
aI203
aI259
aI462
aI0
aI0
aI259
aI259
aI0
aI0
aI259
aI259
aI0
aI0
aI259
aI259
aI0
aI145
aI259
aI404
aI117
aI0
aI376
aI259
aI0
aI0
aI259
aI259
aI0
aI75
aI259
aI334
aI27
aI0
aI286
aI259
aI28
aI0
aI287
aI259
aI112
aI0
aI371
aI259
aI0
aI0
aI259
aI259
aI0
aI0
aI259
aI259
aI0
aI0
aI259
aI259
aI22
aI0
aI281
aI259
aI227
aI0
aI486
aI259
aI0
aI0
aI259
aI259
aI236
aI0
aI495
aI259
aI218
aI0
aI477
aI259
aI0
aI34
aI259
aI293
aI0
aI35
aI259
aI294
aI0
aI0
aI259
aI259
aI0
aI109
aI259
aI368
aI0
aI195
aI259
aI454
aI0
aI0
aI259
aI259
aI0
aI129
aI259
aI388
aI0
aI0
aI259
aI259
aI0
aI0
aI259
aI259
aI0
aI0
aI259
aI259
aI161
aI0
aI420
aI259
aI0
aI172
aI259
aI431
aI0
aI0
aI259
aI259
aI100
aI0
aI359
aI259
aI68
aI0
aI327
aI259
aI0
aI0
aI259
aI259
aI0
aI0
aI259
aI259
aI0
aI106
aI259
aI365
aI0
aI0
aI259
aI259
aI0
aI0
aI259
aI259
aI0
aI0
aI259
aI259
aI0
aI0
aI259
aI259
aI0
aI242
aI259
aI501
aI0
aI258
aI259
aI517
aI0
aI0
aI259
aI259
aI0
aI0
aI259
aI259
aI36
aI0
aI295
aI259
aI37
aI0
aI296
aI259
aI0
aI0
aI259
aI259
aI76
aI0
aI335
aI259
aI0
aI0
aI259
aI259
aI0
aI0
aI259
aI259
aI159
aI0
aI418
aI259
aI0
aI109
aI259
aI368
aI123
aI172
aI382
aI431
aI0
aI0
aI259
aI259
aI0
aI0
aI259
aI259
aI0
aI0
aI259
aI259
aI0
aI0
aI259
aI259
aI0
aI0
aI259
aI259
aI0
aI0
aI259
aI259
aI113
aI0
aI372
aI259
aI200
aI0
aI459
aI259
aI0
aI0
aI259
aI259
aI0
aI127
aI259
aI386
aI0
aI0
aI259
aI259
aI0
aI0
aI259
aI259
aI0
aI0
aI259
aI259
aI0
aI0
aI259
aI259
aI0
aI252
aI259
aI511
aI0
aI0
aI259
aI259
aI0
aI0
aI259
aI259
aI0
aI0
aI259
aI259
aI0
aI0
aI259
aI259
aI0
aI0
aI259
aI259
aI0
aI0
aI259
aI259
aI0
aI0
aI259
aI259
aI0
aI0
aI259
aI259
aI0
aI0
aI259
aI259
aI98
aI0
aI357
aI259
aI178
aI0
aI437
aI259
aI0
aI0
aI259
aI259
aI0
aI118
aI259
aI377
aI167
aI0
aI426
aI259
aI229
aI0
aI488
aI259
aI0
aI0
aI259
aI259
aI0
aI0
aI259
aI259
aI0
aI0
aI259
aI259
aI0
aI0
aI259
aI259
aI0
aI0
aI259
aI259
aI0
aI0
aI259
aI259
aI95
aI0
aI354
aI259
aI0
aI0
aI259
aI259
aI126
aI0
aI385
aI259
aI19
aI0
aI278
aI259
aI20
aI0
aI279
aI259
aI61
aI140
aI320
aI399
aI0
aI0
aI259
aI259
aI134
aI0
aI393
aI259
aI0
aI0
aI259
aI259
aI0
aI0
aI259
aI259
aI0
aI0
aI259
aI259
aI76
aI0
aI335
aI259
aI0
aI163
aI259
aI422
aI0
aI0
aI259
aI259
aI0
aI192
aI259
aI451
aI0
aI0
aI259
aI259
aI78
aI62
aI337
aI321
aI224
aI0
aI483
aI259
aI0
aI0
aI259
aI259
aI0
aI0
aI259
aI259
aI0
aI0
aI259
aI259
aI0
aI0
aI259
aI259
aI0
aI3
aI259
aI262
aI120
aI0
aI379
aI259
aI0
aI0
aI259
aI259
aI0
aI169
aI259
aI428
aI0
aI0
aI259
aI259
aI0
aI0
aI259
aI259
aI0
aI0
aI259
aI259
aI0
aI0
aI259
aI259
aI37
aI0
aI296
aI259
aI0
aI0
aI259
aI259
aI0
aI0
aI259
aI259
aI141
aI0
aI400
aI259
aI0
aI0
aI259
aI259
aI0
aI0
aI259
aI259
aI0
aI184
aI259
aI443
aI0
aI0
aI259
aI259
aI70
aI0
aI329
aI259
aI227
aI0
aI486
aI259
aI191
aI0
aI450
aI259
aI0
aI98
aI259
aI357
aI0
aI0
aI259
aI259
aI0
aI0
aI259
aI259
aI0
aI0
aI259
aI259
aI0
aI0
aI259
aI259
aI0
aI0
aI259
aI259
aI0
aI0
aI259
aI259
aI0
aI0
aI259
aI259
aI0
aI0
aI259
aI259
aI81
aI0
aI340
aI259
aI176
aI18
aI435
aI277
aI124
aI0
aI383
aI259
aI0
aI0
aI259
aI259
aI0
aI175
aI259
aI434
aI43
aI38
aI302
aI297
aI0
aI39
aI259
aI298
aI0
aI0
aI259
aI259
aI0
aI0
aI259
aI259
aI0
aI162
aI259
aI421
aI109
aI0
aI368
aI259
aI9
aI133
aI268
aI392
aI0
aI90
aI259
aI349
aI0
aI0
aI259
aI259
aI0
aI0
aI259
aI259
aI0
aI0
aI259
aI259
aI0
aI0
aI259
aI259
aI0
aI0
aI259
aI259
aI0
aI0
aI259
aI259
aI0
aI0
aI259
aI259
aI0
aI0
aI259
aI259
aI0
aI0
aI259
aI259
aI0
aI0
aI259
aI259
aI0
aI0
aI259
aI259
aI0
aI0
aI259
aI259
aI0
aI0
aI259
aI259
aI0
aI0
aI259
aI259
aI0
aI224
aI259
aI483
aI0
aI41
aI259
aI300
aI0
aI244
aI259
aI503
aI0
aI68
aI259
aI327
aI0
aI0
aI259
aI259
aI0
aI0
aI259
aI259
aI0
aI49
aI259
aI308
aI0
aI152
aI259
aI411
aI0
aI0
aI259
aI259
aI0
aI0
aI259
aI259
aI98
aI0
aI357
aI259
aI0
aI247
aI259
aI506
aI242
aI0
aI501
aI259
aI0
aI0
aI259
aI259
aI0
aI0
aI259
aI259
aI0
aI0
aI259
aI259
aI0
aI0
aI259
aI259
aI0
aI209
aI259
aI468
aI0
aI0
aI259
aI259
aI255
aI244
aI514
aI503
aI0
aI0
aI259
aI259
aI0
aI0
aI259
aI259
aI0
aI66
aI259
aI325
aI0
aI0
aI259
aI259
aI0
aI0
aI259
aI259
aI79
aI0
aI338
aI259
aI0
aI216
aI259
aI475
aI0
aI257
aI259
aI516
aI0
aI0
aI259
aI259
aI257
aI0
aI516
aI259
aI0
aI178
aI259
aI437
aI78
aI0
aI337
aI259
aI0
aI0
aI259
aI259
aI0
aI0
aI259
aI259
aI0
aI0
aI259
aI259
aI0
aI121
aI259
aI380
aI52
aI0
aI311
aI259
aI0
aI63
aI259
aI322
aI0
aI0
aI259
aI259
aI58
aI0
aI317
aI259
aI59
aI0
aI318
aI259
aI0
aI0
aI259
aI259
aI0
aI118
aI259
aI377
aI0
aI0
aI259
aI259
aI0
aI0
aI259
aI259
aI0
aI0
aI259
aI259
aI0
aI245
aI259
aI504
aI0
aI0
aI259
aI259
aI0
aI0
aI259
aI259
aI0
aI0
aI259
aI259
aI0
aI0
aI259
aI259
aI0
aI9
aI259
aI268
aI0
aI0
aI259
aI259
aI0
aI0
aI259
aI259
aI0
aI0
aI259
aI259
aI0
aI0
aI259
aI259
aI0
aI0
aI259
aI259
aI0
aI33
aI259
aI292
aI0
aI0
aI259
aI259
aI0
aI0
aI259
aI259
aI230
aI0
aI489
aI259
aI0
aI80
aI259
aI339
aI0
aI0
aI259
aI259
aI0
aI35
aI259
aI294
aI0
aI0
aI259
aI259
aI0
aI99
aI259
aI358
aI0
aI0
aI259
aI259
aI0
aI240
aI259
aI499
aI0
aI0
aI259
aI259
aI0
aI0
aI259
aI259
aI157
aI0
aI416
aI259
aI0
aI0
aI259
aI259
aI0
aI0
aI259
aI259
aI0
aI0
aI259
aI259
aI45
aI0
aI304
aI259
aI229
aI0
aI488
aI259
aI0
aI0
aI259
aI259
aI0
aI0
aI259
aI259
aI0
aI0
aI259
aI259
aI0
aI0
aI259
aI259
aI0
aI0
aI259
aI259
aI0
aI0
aI259
aI259
aI226
aI0
aI485
aI259
aI214
aI0
aI473
aI259
aI0
aI0
aI259
aI259
aI0
aI0
aI259
aI259
aI0
aI1
aI259
aI260
aI0
aI249
aI259
aI508
aI0
aI0
aI259
aI259
aI0
aI0
aI259
aI259
aI0
aI0
aI259
aI259
aI0
aI0
aI259
aI259
aI0
aI0
aI259
aI259
aI0
aI182
aI259
aI441
aI0
aI0
aI259
aI259
aI58
aI0
aI317
aI259
aI59
aI0
aI318
aI259
aI74
aI0
aI333
aI259
aI0
aI0
aI259
aI259
aI0
aI0
aI259
aI259
aI0
aI0
aI259
aI259
aI0
aI87
aI259
aI346
aI0
aI0
aI259
aI259
aI185
aI0
aI444
aI259
aI0
aI158
aI259
aI417
aI140
aI0
aI399
aI259
aI0
aI0
aI259
aI259
aI0
aI0
aI259
aI259
aI0
aI0
aI259
aI259
aI154
aI0
aI413
aI259
aI0
aI0
aI259
aI259
aI0
aI0
aI259
aI259
aI0
aI0
aI259
aI259
aI0
aI0
aI259
aI259
aI0
aI0
aI259
aI259
aI0
aI0
aI259
aI259
aI0
aI0
aI259
aI259
aI0
aI135
aI259
aI394
aI0
aI85
aI259
aI344
aI0
aI0
aI259
aI259
aI0
aI0
aI259
aI259
aI0
aI0
aI259
aI259
aI181
aI0
aI440
aI259
aI0
aI0
aI259
aI259
aI217
aI176
aI476
aI435
aI0
aI228
aI259
aI487
aI166
aI0
aI425
aI259
aI0
aI225
aI259
aI484
aI0
aI0
aI259
aI259
aI0
aI0
aI259
aI259
aI0
aI0
aI259
aI259
aI0
aI159
aI259
aI418
aI217
aI0
aI476
aI259
aI0
aI115
aI259
aI374
aI0
aI0
aI259
aI259
aI151
aI0
aI410
aI259
aI0
aI0
aI259
aI259
aI0
aI71
aI259
aI330
aI0
aI0
aI259
aI259
aI0
aI0
aI259
aI259
aI101
aI0
aI360
aI259
aI0
aI0
aI259
aI259
aI57
aI0
aI316
aI259
aI0
aI0
aI259
aI259
aI0
aI0
aI259
aI259
aI0
aI0
aI259
aI259
aI0
aI0
aI259
aI259
aI185
aI0
aI444
aI259
aI0
aI0
aI259
aI259
aI0
aI0
aI259
aI259
aI0
aI0
aI259
aI259
aI0
aI0
aI259
aI259
aI0
aI0
aI259
aI259
aI173
aI0
aI432
aI259
aI0
aI0
aI259
aI259
aI0
aI0
aI259
aI259
aI0
aI0
aI259
aI259
aI0
aI0
aI259
aI259
aI0
aI199
aI259
aI458
aI0
aI0
aI259
aI259
aI0
aI0
aI259
aI259
aI0
aI118
aI259
aI377
aI0
aI0
aI259
aI259
aI0
aI0
aI259
aI259
aI0
aI187
aI259
aI446
aI0
aI39
aI259
aI298
aI0
aI0
aI259
aI259
aI0
aI0
aI259
aI259
aI60
aI0
aI319
aI259
aI221
aI0
aI480
aI259
aI0
aI0
aI259
aI259
aI0
aI0
aI259
aI259
aI60
aI0
aI319
aI259
aI7
aI0
aI266
aI259
aI0
aI0
aI259
aI259
aI0
aI0
aI259
aI259
aI0
aI0
aI259
aI259
aI0
aI0
aI259
aI259
aI0
aI0
aI259
aI259
aI0
aI0
aI259
aI259
aI0
aI29
aI259
aI288
aI0
aI0
aI259
aI259
aI0
aI0
aI259
aI259
aI0
aI45
aI259
aI304
aI120
aI46
aI379
aI305
aI0
aI0
aI259
aI259
aI0
aI175
aI259
aI434
aI212
aI224
aI471
aI483
aI132
aI0
aI391
aI259
aI34
aI0
aI293
aI259
aI222
aI0
aI481
aI259
aI2
aI0
aI261
aI259
aI3
aI0
aI262
aI259
aI0
aI0
aI259
aI259
aI0
aI0
aI259
aI259
aI224
aI148
aI483
aI407
aI0
aI0
aI259
aI259
aI0
aI0
aI259
aI259
aI0
aI0
aI259
aI259
aI161
aI0
aI420
aI259
aI58
aI0
aI317
aI259
aI59
aI0
aI318
aI259
aI0
aI174
aI259
aI433
aI0
aI0
aI259
aI259
aI0
aI161
aI259
aI420
aI0
aI0
aI259
aI259
aI0
aI0
aI259
aI259
aI222
aI151
aI481
aI410
aI0
aI0
aI259
aI259
aI0
aI64
aI259
aI323
aI0
aI0
aI259
aI259
aI3
aI0
aI262
aI259
aI0
aI0
aI259
aI259
aI0
aI0
aI259
aI259
aI0
aI0
aI259
aI259
aI0
aI0
aI259
aI259
aI0
aI0
aI259
aI259
aI0
aI75
aI259
aI334
aI0
aI0
aI259
aI259
aI0
aI119
aI259
aI378
aI0
aI141
aI259
aI400
aI0
aI0
aI259
aI259
aI227
aI57
aI486
aI316
aI24
aI0
aI283
aI259
aI0
aI0
aI259
aI259
aI0
aI0
aI259
aI259
aI0
aI0
aI259
aI259
aI0
aI130
aI259
aI389
aI171
aI0
aI430
aI259
aI0
aI16
aI259
aI275
aI0
aI0
aI259
aI259
aI0
aI199
aI259
aI458
aI157
aI0
aI416
aI259
aI0
aI0
aI259
aI259
aI0
aI0
aI259
aI259
aI0
aI0
aI259
aI259
aI0
aI0
aI259
aI259
aI8
aI182
aI267
aI441
aI9
aI0
aI268
aI259
aI0
aI0
aI259
aI259
aI0
aI0
aI259
aI259
aI124
aI121
aI383
aI380
aI224
aI0
aI483
aI259
aI0
aI0
aI259
aI259
aI0
aI186
aI259
aI445
aI0
aI0
aI259
aI259
aI0
aI41
aI259
aI300
aI0
aI42
aI259
aI301
aI0
aI0
aI259
aI259
aI0
aI0
aI259
aI259
aI0
aI195
aI259
aI454
aI0
aI0
aI259
aI259
aI219
aI0
aI478
aI259
aI0
aI140
aI259
aI399
aI0
aI0
aI259
aI259
aI0
aI0
aI259
aI259
aI0
aI0
aI259
aI259
aI242
aI0
aI501
aI259
aI0
aI0
aI259
aI259
aI0
aI0
aI259
aI259
aI0
aI13
aI259
aI272
aI0
aI0
aI259
aI259
aI0
aI0
aI259
aI259
aI0
aI0
aI259
aI259
aI89
aI0
aI348
aI259
aI0
aI0
aI259
aI259
aI0
aI0
aI259
aI259
aI186
aI0
aI445
aI259
aI0
aI0
aI259
aI259
aI0
aI195
aI259
aI454
aI0
aI176
aI259
aI435
aI0
aI0
aI259
aI259
aI0
aI0
aI259
aI259
aI0
aI135
aI259
aI394
aI0
aI0
aI259
aI259
aI0
aI71
aI259
aI330
aI0
aI0
aI259
aI259
aI233
aI0
aI492
aI259
aI246
aI0
aI505
aI259
aI0
aI176
aI259
aI435
aI0
aI0
aI259
aI259
aI0
aI0
aI259
aI259
aI0
aI0
aI259
aI259
aI63
aI0
aI322
aI259
aI0
aI0
aI259
aI259
aI0
aI0
aI259
aI259
aI0
aI0
aI259
aI259
aI135
aI102
aI394
aI361
aI0
aI130
aI259
aI389
aI0
aI0
aI259
aI259
aI0
aI0
aI259
aI259
aI0
aI257
aI259
aI516
aI0
aI0
aI259
aI259
aI0
aI0
aI259
aI259
aI0
aI0
aI259
aI259
aI0
aI0
aI259
aI259
aI0
aI0
aI259
aI259
aI0
aI0
aI259
aI259
aI0
aI0
aI259
aI259
aI0
aI0
aI259
aI259
aI0
aI0
aI259
aI259
aI0
aI199
aI259
aI458
aI0
aI70
aI259
aI329
aI0
aI126
aI259
aI385
aI0
aI0
aI259
aI259
aI0
aI0
aI259
aI259
aI0
aI197
aI259
aI456
aI0
aI0
aI259
aI259
aI0
aI0
aI259
aI259
aI117
aI0
aI376
aI259
aI0
aI2
aI259
aI261
aI0
aI3
aI259
aI262
aI0
aI0
aI259
aI259
aI0
aI0
aI259
aI259
aI0
aI0
aI259
aI259
aI0
aI0
aI259
aI259
aI0
aI0
aI259
aI259
aI0
aI0
aI259
aI259
aI148
aI154
aI407
aI413
aI0
aI0
aI259
aI259
aI0
aI0
aI259
aI259
aI0
aI0
aI259
aI259
aI5
aI0
aI264
aI259
aI0
aI76
aI259
aI335
aI0
aI0
aI259
aI259
aI0
aI0
aI259
aI259
aI251
aI0
aI510
aI259
aI185
aI0
aI444
aI259
aI0
aI231
aI259
aI490
aI0
aI34
aI259
aI293
aI0
aI34
aI259
aI293
aI0
aI35
aI259
aI294
aI110
aI222
aI369
aI481
aI98
aI0
aI357
aI259
aI0
aI0
aI259
aI259
aI0
aI0
aI259
aI259
aI0
aI0
aI259
aI259
aI210
aI0
aI469
aI259
aI0
aI72
aI259
aI331
aI0
aI0
aI259
aI259
aI0
aI0
aI259
aI259
aI0
aI0
aI259
aI259
aI0
aI0
aI259
aI259
aI0
aI0
aI259
aI259
aI0
aI0
aI259
aI259
aI0
aI0
aI259
aI259
aI223
aI0
aI482
aI259
aI83
aI0
aI342
aI259
aI0
aI0
aI259
aI259
aI0
aI0
aI259
aI259
aI0
aI0
aI259
aI259
aI190
aI0
aI449
aI259
aI0
aI0
aI259
aI259
aI0
aI0
aI259
aI259
aI0
aI0
aI259
aI259
aI0
aI0
aI259
aI259
aI0
aI159
aI259
aI418
aI0
aI0
aI259
aI259
aI0
aI0
aI259
aI259
aI195
aI0
aI454
aI259
aI0
aI77
aI259
aI336
aI0
aI0
aI259
aI259
aI0
aI0
aI259
aI259
aI0
aI0
aI259
aI259
aI0
aI0
aI259
aI259
aI0
aI0
aI259
aI259
aI0
aI0
aI259
aI259
aI0
aI0
aI259
aI259
aI0
aI87
aI259
aI346
aI0
aI0
aI259
aI259
aI161
aI0
aI420
aI259
aI0
aI0
aI259
aI259
aI0
aI61
aI259
aI320
aI82
aI0
aI341
aI259
aI0
aI0
aI259
aI259
aI132
aI0
aI391
aI259
aI0
aI0
aI259
aI259
aI169
aI0
aI428
aI259
aI0
aI75
aI259
aI334
aI0
aI0
aI259
aI259
aI0
aI0
aI259
aI259
aI0
aI0
aI259
aI259
aI67
aI222
aI326
aI481
aI68
aI0
aI327
aI259
aI0
aI86
aI259
aI345
aI0
aI0
aI259
aI259
aI0
aI0
aI259
aI259
aI0
aI19
aI259
aI278
aI0
aI105
aI259
aI364
aI0
aI0
aI259
aI259
aI0
aI0
aI259
aI259
aI0
aI0
aI259
aI259
aI203
aI0
aI462
aI259
aI131
aI200
aI390
aI459
aI0
aI0
aI259
aI259
aI0
aI0
aI259
aI259
aI0
aI0
aI259
aI259
aI0
aI16
aI259
aI275
aI0
aI0
aI259
aI259
aI0
aI0
aI259
aI259
aI0
aI40
aI259
aI299
aI0
aI0
aI259
aI259
aI99
aI38
aI358
aI297
aI0
aI39
aI259
aI298
aI181
aI0
aI440
aI259
aI0
aI0
aI259
aI259
aI49
aI0
aI308
aI259
aI0
aI125
aI259
aI384
aI0
aI45
aI259
aI304
aI113
aI46
aI372
aI305
aI0
aI0
aI259
aI259
aI248
aI0
aI507
aI259
aI0
aI0
aI259
aI259
aI0
aI0
aI259
aI259
aI134
aI0
aI393
aI259
aI79
aI0
aI338
aI259
aI0
aI154
aI259
aI413
aI0
aI100
aI259
aI359
aI0
aI0
aI259
aI259
aI0
aI0
aI259
aI259
aI0
aI0
aI259
aI259
aI94
aI69
aI353
aI328
aI0
aI70
aI259
aI329
aI0
aI0
aI259
aI259
aI0
aI0
aI259
aI259
aI200
aI5
aI459
aI264
aI75
aI0
aI334
aI259
aI0
aI0
aI259
aI259
aI0
aI0
aI259
aI259
aI0
aI0
aI259
aI259
aI0
aI0
aI259
aI259
aI197
aI0
aI456
aI259
aI0
aI0
aI259
aI259
aI0
aI0
aI259
aI259
aI0
aI0
aI259
aI259
aI0
aI0
aI259
aI259
aI150
aI0
aI409
aI259
aI0
aI0
aI259
aI259
aI0
aI138
aI259
aI397
aI0
aI0
aI259
aI259
aI0
aI0
aI259
aI259
aI0
aI0
aI259
aI259
aI98
aI0
aI357
aI259
aI0
aI0
aI259
aI259
aI0
aI0
aI259
aI259
aI0
aI57
aI259
aI316
aI0
aI0
aI259
aI259
aI0
aI0
aI259
aI259
aI47
aI0
aI306
aI259
aI0
aI0
aI259
aI259
aI0
aI0
aI259
aI259
aI0
aI242
aI259
aI501
aI0
aI0
aI259
aI259
aI0
aI0
aI259
aI259
aI228
aI0
aI487
aI259
aI228
aI0
aI487
aI259
aI0
aI206
aI259
aI465
aI31
aI0
aI290
aI259
aI0
aI0
aI259
aI259
aI0
aI0
aI259
aI259
aI0
aI0
aI259
aI259
aI0
aI0
aI259
aI259
aI0
aI168
aI259
aI427
aI0
aI0
aI259
aI259
aI220
aI0
aI479
aI259
aI0
aI0
aI259
aI259
aI0
aI0
aI259
aI259
aI0
aI246
aI259
aI505
aI0
aI0
aI259
aI259
aI0
aI0
aI259
aI259
aI0
aI0
aI259
aI259
aI0
aI0
aI259
aI259
aI0
aI196
aI259
aI455
aI0
aI0
aI259
aI259
aI0
aI0
aI259
aI259
aI0
aI0
aI259
aI259
aI0
aI0
aI259
aI259
aI0
aI0
aI259
aI259
aI0
aI90
aI259
aI349
aI0
aI0
aI259
aI259
aI0
aI0
aI259
aI259
aI206
aI0
aI465
aI259
aI0
aI0
aI259
aI259
aI0
aI0
aI259
aI259
aI55
aI0
aI314
aI259
aI0
aI0
aI259
aI259
aI0
aI0
aI259
aI259
aI0
aI0
aI259
aI259
aI0
aI0
aI259
aI259
aI0
aI0
aI259
aI259
aI0
aI174
aI259
aI433
aI0
aI0
aI259
aI259
aI0
aI0
aI259
aI259
aI0
aI0
aI259
aI259
aI164
aI0
aI423
aI259
aI0
aI0
aI259
aI259
aI0
aI0
aI259
aI259
aI0
aI0
aI259
aI259
aI0
aI0
aI259
aI259
aI0
aI0
aI259
aI259
aI0
aI0
aI259
aI259
aI225
aI0
aI484
aI259
aI0
aI0
aI259
aI259
aI167
aI0
aI426
aI259
aI0
aI0
aI259
aI259
aI0
aI85
aI259
aI344
aI0
aI0
aI259
aI259
aI0
aI0
aI259
aI259
aI196
aI0
aI455
aI259
aI0
aI0
aI259
aI259
aI0
aI0
aI259
aI259
aI0
aI207
aI259
aI466
aI119
aI0
aI378
aI259
aI0
aI0
aI259
aI259
aI0
aI0
aI259
aI259
aI0
aI0
aI259
aI259
aI0
aI0
aI259
aI259
aI0
aI0
aI259
aI259
aI0
aI0
aI259
aI259
aI160
aI0
aI419
aI259
aI156
aI0
aI415
aI259
aI37
aI0
aI296
aI259
aI0
aI0
aI259
aI259
aI16
aI59
aI275
aI318
aI197
aI0
aI456
aI259
aI0
aI0
aI259
aI259
aI0
aI0
aI259
aI259
aI0
aI146
aI259
aI405
aI0
aI183
aI259
aI442
aI0
aI0
aI259
aI259
aI0
aI0
aI259
aI259
aI0
aI0
aI259
aI259
aI0
aI0
aI259
aI259
aI0
aI82
aI259
aI341
aI0
aI234
aI259
aI493
aI197
aI0
aI456
aI259
aI0
aI0
aI259
aI259
aI0
aI0
aI259
aI259
aI91
aI0
aI350
aI259
aI0
aI0
aI259
aI259
aI0
aI6
aI259
aI265
aI155
aI7
aI414
aI266
aI0
aI0
aI259
aI259
aI0
aI0
aI259
aI259
aI0
aI0
aI259
aI259
aI0
aI0
aI259
aI259
aI0
aI0
aI259
aI259
aI0
aI0
aI259
aI259
aI0
aI0
aI259
aI259
aI0
aI172
aI259
aI431
aI0
aI0
aI259
aI259
aI0
aI0
aI259
aI259
aI0
aI0
aI259
aI259
aI203
aI0
aI462
aI259
aI0
aI0
aI259
aI259
aI0
aI0
aI259
aI259
aI0
aI0
aI259
aI259
aI191
aI0
aI450
aI259
aI0
aI223
aI259
aI482
aI0
aI3
aI259
aI262
aI0
aI0
aI259
aI259
aI0
aI0
aI259
aI259
aI0
aI0
aI259
aI259
aI109
aI0
aI368
aI259
aI0
aI0
aI259
aI259
aI0
aI0
aI259
aI259
aI0
aI0
aI259
aI259
aI0
aI177
aI259
aI436
aI2
aI0
aI261
aI259
aI70
aI0
aI329
aI259
aI39
aI0
aI298
aI259
aI0
aI181
aI259
aI440
aI0
aI0
aI259
aI259
aI112
aI84
aI371
aI343
aI0
aI0
aI259
aI259
aI0
aI0
aI259
aI259
aI0
aI0
aI259
aI259
aI0
aI14
aI259
aI273
aI0
aI25
aI259
aI284
aI0
aI0
aI259
aI259
aI0
aI27
aI259
aI286
aI0
aI30
aI259
aI289
aI98
aI0
aI357
aI259
aI186
aI0
aI445
aI259
aI0
aI0
aI259
aI259
aI0
aI0
aI259
aI259
aI0
aI0
aI259
aI259
aI0
aI0
aI259
aI259
aI0
aI0
aI259
aI259
aI0
aI0
aI259
aI259
aI0
aI0
aI259
aI259
aI0
aI0
aI259
aI259
aI0
aI0
aI259
aI259
aI0
aI0
aI259
aI259
aI36
aI0
aI295
aI259
aI233
aI0
aI492
aI259
aI0
aI0
aI259
aI259
aI0
aI0
aI259
aI259
aI56
aI0
aI315
aI259
aI0
aI0
aI259
aI259
aI24
aI0
aI283
aI259
aI77
aI0
aI336
aI259
aI98
aI0
aI357
aI259
aI0
aI0
aI259
aI259
aI0
aI207
aI259
aI466
aI0
aI153
aI259
aI412
aI170
aI0
aI429
aI259
aI0
aI0
aI259
aI259
aI0
aI0
aI259
aI259
aI0
aI0
aI259
aI259
aI255
aI0
aI514
aI259
aI0
aI0
aI259
aI259
aI0
aI228
aI259
aI487
aI0
aI65
aI259
aI324
aI0
aI191
aI259
aI450
aI78
aI0
aI337
aI259
aI0
aI0
aI259
aI259
aI0
aI0
aI259
aI259
aI0
aI0
aI259
aI259
aI0
aI0
aI259
aI259
aI0
aI0
aI259
aI259
aI0
aI0
aI259
aI259
aI0
aI0
aI259
aI259
aI0
aI0
aI259
aI259
aI0
aI0
aI259
aI259
aI0
aI0
aI259
aI259
aI0
aI0
aI259
aI259
aI0
aI0
aI259
aI259
aI0
aI0
aI259
aI259
aI0
aI0
aI259
aI259
aI0
aI0
aI259
aI259
aI147
aI0
aI406
aI259
aI0
aI0
aI259
aI259
aI236
aI150
aI495
aI409
aI0
aI0
aI259
aI259
aI0
aI0
aI259
aI259
aI0
aI0
aI259
aI259
aI124
aI0
aI383
aI259
aI0
aI0
aI259
aI259
aI0
aI0
aI259
aI259
aI0
aI0
aI259
aI259
aI0
aI0
aI259
aI259
aI0
aI36
aI259
aI295
aI0
aI37
aI259
aI296
aI0
aI0
aI259
aI259
aI50
aI0
aI309
aI259
aI0
aI0
aI259
aI259
aI0
aI0
aI259
aI259
aI139
aI0
aI398
aI259
aI0
aI0
aI259
aI259
aI0
aI0
aI259
aI259
aI0
aI62
aI259
aI321
aI0
aI0
aI259
aI259
aI0
aI0
aI259
aI259
aI141
aI0
aI400
aI259
aI0
aI170
aI259
aI429
aI0
aI0
aI259
aI259
aI0
aI0
aI259
aI259
aI0
aI0
aI259
aI259
aI0
aI0
aI259
aI259
aI0
aI0
aI259
aI259
aI0
aI0
aI259
aI259
aI158
aI0
aI417
aI259
aI0
aI0
aI259
aI259
aI0
aI68
aI259
aI327
aI0
aI0
aI259
aI259
aI0
aI0
aI259
aI259
aI216
aI208
aI475
aI467
aI20
aI0
aI279
aI259
aI224
aI75
aI483
aI334
aI0
aI0
aI259
aI259
aI0
aI114
aI259
aI373
aI0
aI170
aI259
aI429
aI0
aI0
aI259
aI259
aI0
aI0
aI259
aI259
aI0
aI0
aI259
aI259
aI0
aI0
aI259
aI259
aI202
aI0
aI461
aI259
aI0
aI0
aI259
aI259
aI0
aI0
aI259
aI259
aI0
aI108
aI259
aI367
aI0
aI0
aI259
aI259
aI0
aI0
aI259
aI259
aI0
aI0
aI259
aI259
aI0
aI0
aI259
aI259
aI51
aI0
aI310
aI259
aI52
aI0
aI311
aI259
aI50
aI101
aI309
aI360
aI0
aI0
aI259
aI259
aI0
aI0
aI259
aI259
aI0
aI0
aI259
aI259
aI124
aI0
aI383
aI259
aI0
aI0
aI259
aI259
aI0
aI0
aI259
aI259
aI0
aI0
aI259
aI259
aI0
aI0
aI259
aI259
aI52
aI0
aI311
aI259
aI107
aI0
aI366
aI259
aI0
aI0
aI259
aI259
aI0
aI0
aI259
aI259
aI0
aI0
aI259
aI259
aI0
aI0
aI259
aI259
aI0
aI0
aI259
aI259
aI0
aI0
aI259
aI259
aI0
aI0
aI259
aI259
aI0
aI0
aI259
aI259
aI0
aI0
aI259
aI259
aI0
aI4
aI259
aI263
aI0
aI84
aI259
aI343
aI0
aI0
aI259
aI259
aI0
aI0
aI259
aI259
aI0
aI0
aI259
aI259
aI0
aI0
aI259
aI259
aI254
aI133
aI513
aI392
aI0
aI0
aI259
aI259
aI170
aI0
aI429
aI259
aI0
aI0
aI259
aI259
aI0
aI0
aI259
aI259
aI0
aI0
aI259
aI259
aI0
aI65
aI259
aI324
aI246
aI245
aI505
aI504
aI0
aI231
aI259
aI490
aI0
aI0
aI259
aI259
aI0
aI0
aI259
aI259
aI229
aI154
aI488
aI413
aI44
aI0
aI303
aI259
aI92
aI0
aI351
aI259
aI0
aI0
aI259
aI259
aI0
aI0
aI259
aI259
aI0
aI45
aI259
aI304
aI0
aI46
aI259
aI305
aI242
aI0
aI501
aI259
aI0
aI0
aI259
aI259
aI103
aI0
aI362
aI259
aI0
aI76
aI259
aI335
aI0
aI0
aI259
aI259
aI0
aI182
aI259
aI441
aI0
aI112
aI259
aI371
aI0
aI195
aI259
aI454
aI0
aI0
aI259
aI259
aI152
aI0
aI411
aI259
aI0
aI0
aI259
aI259
aI0
aI0
aI259
aI259
aI0
aI0
aI259
aI259
aI0
aI0
aI259
aI259
aI0
aI109
aI259
aI368
aI105
aI0
aI364
aI259
aI59
aI0
aI318
aI259
aI49
aI0
aI308
aI259
aI0
aI0
aI259
aI259
aI18
aI0
aI277
aI259
aI0
aI0
aI259
aI259
aI180
aI0
aI439
aI259
aI0
aI0
aI259
aI259
aI0
aI251
aI259
aI510
aI0
aI256
aI259
aI515
aI0
aI0
aI259
aI259
aI0
aI0
aI259
aI259
aI48
aI0
aI307
aI259
aI0
aI159
aI259
aI418
aI0
aI0
aI259
aI259
aI0
aI226
aI259
aI485
aI190
aI249
aI449
aI508
aI0
aI0
aI259
aI259
aI79
aI0
aI338
aI259
aI0
aI74
aI259
aI333
aI0
aI0
aI259
aI259
aI0
aI0
aI259
aI259
aI28
aI0
aI287
aI259
aI46
aI0
aI305
aI259
aI0
aI0
aI259
aI259
aI0
aI0
aI259
aI259
aI0
aI0
aI259
aI259
aI0
aI0
aI259
aI259
aI0
aI0
aI259
aI259
aI0
aI224
aI259
aI483
aI93
aI0
aI352
aI259
aI190
aI189
aI449
aI448
aI9
aI0
aI268
aI259
aI0
aI231
aI259
aI490
aI0
aI0
aI259
aI259
aI0
aI0
aI259
aI259
aI0
aI0
aI259
aI259
aI0
aI0
aI259
aI259
aI0
aI0
aI259
aI259
aI133
aI0
aI392
aI259
aI0
aI129
aI259
aI388
aI0
aI0
aI259
aI259
aI0
aI0
aI259
aI259
aI0
aI45
aI259
aI304
aI0
aI46
aI259
aI305
aI0
aI0
aI259
aI259
aI0
aI0
aI259
aI259
aI232
aI0
aI491
aI259
aI48
aI238
aI307
aI497
aI0
aI0
aI259
aI259
aI0
aI0
aI259
aI259
aI0
aI0
aI259
aI259
aI0
aI0
aI259
aI259
aI0
aI0
aI259
aI259
aI0
aI0
aI259
aI259
aI0
aI0
aI259
aI259
aI0
aI0
aI259
aI259
aI0
aI238
aI259
aI497
aI0
aI0
aI259
aI259
aI0
aI0
aI259
aI259
aI0
aI0
aI259
aI259
aI0
aI0
aI259
aI259
aI0
aI0
aI259
aI259
aI0
aI61
aI259
aI320
aI0
aI0
aI259
aI259
aI0
aI220
aI259
aI479
aI0
aI0
aI259
aI259
aI212
aI0
aI471
aI259
aI0
aI66
aI259
aI325
aI229
aI0
aI488
aI259
aI0
aI0
aI259
aI259
aI0
aI0
aI259
aI259
aI0
aI0
aI259
aI259
aI0
aI0
aI259
aI259
aI0
aI0
aI259
aI259
aI0
aI0
aI259
aI259
aI0
aI185
aI259
aI444
aI0
aI0
aI259
aI259
aI0
aI11
aI259
aI270
aI0
aI0
aI259
aI259
aI0
aI0
aI259
aI259
aI0
aI0
aI259
aI259
aI0
aI0
aI259
aI259
aI0
aI0
aI259
aI259
aI0
aI13
aI259
aI272
aI0
aI0
aI259
aI259
aI0
aI141
aI259
aI400
aI0
aI0
aI259
aI259
aI0
aI0
aI259
aI259
aI0
aI0
aI259
aI259
aI20
aI0
aI279
aI259
aI0
aI0
aI259
aI259
aI0
aI0
aI259
aI259
aI0
aI0
aI259
aI259
aI0
aI0
aI259
aI259
aI0
aI37
aI259
aI296
aI0
aI0
aI259
aI259
aI0
aI193
aI259
aI452
aI0
aI0
aI259
aI259
aI0
aI0
aI259
aI259
aI0
aI0
aI259
aI259
aI0
aI0
aI259
aI259
aI0
aI0
aI259
aI259
aI0
aI82
aI259
aI341
aI106
aI193
aI365
aI452
aI0
aI0
aI259
aI259
aI0
aI0
aI259
aI259
aI0
aI0
aI259
aI259
aI0
aI0
aI259
aI259
aI174
aI0
aI433
aI259
aI0
aI0
aI259
aI259
aI0
aI125
aI259
aI384
aI121
aI0
aI380
aI259
aI0
aI0
aI259
aI259
aI0
aI0
aI259
aI259
aI0
aI0
aI259
aI259
aI0
aI0
aI259
aI259
aI0
aI0
aI259
aI259
aI21
aI0
aI280
aI259
aI0
aI20
aI259
aI279
aI0
aI11
aI259
aI270
aI0
aI63
aI259
aI322
aI0
aI0
aI259
aI259
aI0
aI0
aI259
aI259
aI0
aI0
aI259
aI259
aI0
aI0
aI259
aI259
aI0
aI0
aI259
aI259
aI0
aI48
aI259
aI307
aI0
aI0
aI259
aI259
aI0
aI107
aI259
aI366
aI0
aI0
aI259
aI259
aI12
aI0
aI271
aI259
aI0
aI0
aI259
aI259
aI0
aI0
aI259
aI259
aI231
aI0
aI490
aI259
aI0
aI0
aI259
aI259
aI0
aI0
aI259
aI259
aI0
aI0
aI259
aI259
aI0
aI0
aI259
aI259
aI89
aI75
aI348
aI334
aI0
aI0
aI259
aI259
aI0
aI0
aI259
aI259
aI0
aI0
aI259
aI259
aI0
aI0
aI259
aI259
aI0
aI0
aI259
aI259
aI0
aI196
aI259
aI455
aI0
aI0
aI259
aI259
aI0
aI0
aI259
aI259
aI0
aI0
aI259
aI259
aI44
aI0
aI303
aI259
aI0
aI0
aI259
aI259
aI0
aI1
aI259
aI260
aI0
aI12
aI259
aI271
aI0
aI163
aI259
aI422
aI0
aI0
aI259
aI259
aI0
aI0
aI259
aI259
aI0
aI0
aI259
aI259
aI0
aI0
aI259
aI259
aI0
aI0
aI259
aI259
aI0
aI0
aI259
aI259
aI0
aI243
aI259
aI502
aI0
aI0
aI259
aI259
aI0
aI0
aI259
aI259
aI0
aI141
aI259
aI400
aI0
aI0
aI259
aI259
aI183
aI0
aI442
aI259
aI0
aI0
aI259
aI259
aI0
aI0
aI259
aI259
aI0
aI0
aI259
aI259
aI0
aI0
aI259
aI259
aI0
aI0
aI259
aI259
aI0
aI0
aI259
aI259
aI0
aI0
aI259
aI259
aI0
aI0
aI259
aI259
aI0
aI109
aI259
aI368
aI0
aI135
aI259
aI394
aI0
aI0
aI259
aI259
aI152
aI0
aI411
aI259
aI0
aI97
aI259
aI356
aI178
aI0
aI437
aI259
aI0
aI199
aI259
aI458
aI0
aI0
aI259
aI259
aI44
aI0
aI303
aI259
aI0
aI0
aI259
aI259
aI0
aI0
aI259
aI259
aI0
aI44
aI259
aI303
aI0
aI0
aI259
aI259
aI0
aI0
aI259
aI259
aI0
aI0
aI259
aI259
aI0
aI0
aI259
aI259
aI0
aI159
aI259
aI418
aI88
aI0
aI347
aI259
aI0
aI0
aI259
aI259
aI0
aI0
aI259
aI259
aI178
aI0
aI437
aI259
aI0
aI0
aI259
aI259
aI7
aI0
aI266
aI259
aI0
aI99
aI259
aI358
aI0
aI103
aI259
aI362
aI0
aI0
aI259
aI259
aI157
aI0
aI416
aI259
aI0
aI0
aI259
aI259
aI0
aI0
aI259
aI259
aI0
aI0
aI259
aI259
aI0
aI0
aI259
aI259
aI0
aI0
aI259
aI259
aI115
aI0
aI374
aI259
aI0
aI0
aI259
aI259
aI0
aI0
aI259
aI259
aI0
aI157
aI259
aI416
aI236
aI0
aI495
aI259
aI0
aI210
aI259
aI469
aI23
aI0
aI282
aI259
aI24
aI0
aI283
aI259
aI0
aI0
aI259
aI259
aI0
aI0
aI259
aI259
aI0
aI0
aI259
aI259
aI0
aI106
aI259
aI365
aI0
aI0
aI259
aI259
aI0
aI0
aI259
aI259
aI0
aI0
aI259
aI259
aI22
aI164
aI281
aI423
aI0
aI176
aI259
aI435
aI235
aI0
aI494
aI259
aI0
aI0
aI259
aI259
aI0
aI0
aI259
aI259
aI0
aI0
aI259
aI259
aI0
aI77
aI259
aI336
aI0
aI203
aI259
aI462
aI0
aI0
aI259
aI259
aI154
aI0
aI413
aI259
aI93
aI0
aI352
aI259
aI0
aI0
aI259
aI259
aI0
aI0
aI259
aI259
aI0
aI0
aI259
aI259
aI44
aI131
aI303
aI390
aI0
aI0
aI259
aI259
aI0
aI0
aI259
aI259
aI0
aI0
aI259
aI259
aI218
aI0
aI477
aI259
aI0
aI0
aI259
aI259
aI0
aI221
aI259
aI480
aI257
aI0
aI516
aI259
aI142
aI0
aI401
aI259
aI0
aI0
aI259
aI259
aI0
aI162
aI259
aI421
aI2
aI0
aI261
aI259
aI3
aI0
aI262
aI259
aI180
aI0
aI439
aI259
aI0
aI0
aI259
aI259
aI0
aI188
aI259
aI447
aI0
aI245
aI259
aI504
aI0
aI0
aI259
aI259
aI22
aI0
aI281
aI259
aI0
aI0
aI259
aI259
aI0
aI0
aI259
aI259
aI0
aI116
aI259
aI375
aI0
aI75
aI259
aI334
aI0
aI0
aI259
aI259
aI0
aI0
aI259
aI259
aI0
aI0
aI259
aI259
aI0
aI210
aI259
aI469
aI0
aI0
aI259
aI259
aI0
aI0
aI259
aI259
aI0
aI0
aI259
aI259
aI0
aI0
aI259
aI259
aI0
aI0
aI259
aI259
aI0
aI0
aI259
aI259
aI95
aI100
aI354
aI359
aI0
aI0
aI259
aI259
aI0
aI0
aI259
aI259
aI197
aI31
aI456
aI290
aI0
aI0
aI259
aI259
aI0
aI0
aI259
aI259
aI0
aI0
aI259
aI259
aI0
aI0
aI259
aI259
aI0
aI0
aI259
aI259
aI0
aI63
aI259
aI322
aI0
aI0
aI259
aI259
aI0
aI0
aI259
aI259
aI143
aI0
aI402
aI259
aI0
aI135
aI259
aI394
aI0
aI0
aI259
aI259
aI0
aI0
aI259
aI259
aI0
aI23
aI259
aI282
aI0
aI24
aI259
aI283
aI0
aI0
aI259
aI259
aI0
aI0
aI259
aI259
aI0
aI0
aI259
aI259
aI0
aI0
aI259
aI259
aI0
aI0
aI259
aI259
aI0
aI0
aI259
aI259
aI0
aI255
aI259
aI514
aI160
aI211
aI419
aI470
aI0
aI0
aI259
aI259
aI0
aI0
aI259
aI259
aI213
aI0
aI472
aI259
aI0
aI0
aI259
aI259
aI0
aI0
aI259
aI259
aI0
aI0
aI259
aI259
aI0
aI0
aI259
aI259
aI0
aI236
aI259
aI495
aI0
aI0
aI259
aI259
aI208
aI0
aI467
aI259
aI0
aI0
aI259
aI259
aI0
aI0
aI259
aI259
aI0
aI0
aI259
aI259
aI178
aI0
aI437
aI259
aI0
aI204
aI259
aI463
aI0
aI0
aI259
aI259
aI0
aI0
aI259
aI259
aI0
aI124
aI259
aI383
aI0
aI0
aI259
aI259
aI144
aI0
aI403
aI259
aI244
aI0
aI503
aI259
aI0
aI0
aI259
aI259
aI0
aI0
aI259
aI259
aI0
aI0
aI259
aI259
aI130
aI69
aI389
aI328
aI51
aI70
aI310
aI329
aI52
aI0
aI311
aI259
aI166
aI0
aI425
aI259
aI150
aI0
aI409
aI259
aI0
aI0
aI259
aI259
aI0
aI168
aI259
aI427
aI237
aI0
aI496
aI259
aI22
aI0
aI281
aI259
aI0
aI0
aI259
aI259
aI0
aI63
aI259
aI322
aI0
aI0
aI259
aI259
aI0
aI0
aI259
aI259
aI0
aI0
aI259
aI259
aI0
aI0
aI259
aI259
aI0
aI246
aI259
aI505
aI0
aI193
aI259
aI452
aI0
aI0
aI259
aI259
aI175
aI0
aI434
aI259
aI0
aI0
aI259
aI259
aI1
aI0
aI260
aI259
aI8
aI0
aI267
aI259
aI97
aI184
aI356
aI443
aI74
aI0
aI333
aI259
aI137
aI0
aI396
aI259
aI0
aI214
aI259
aI473
aI0
aI0
aI259
aI259
aI0
aI162
aI259
aI421
aI0
aI0
aI259
aI259
aI0
aI0
aI259
aI259
aI0
aI126
aI259
aI385
aI0
aI0
aI259
aI259
aI0
aI0
aI259
aI259
aI0
aI0
aI259
aI259
aI0
aI0
aI259
aI259
aI0
aI0
aI259
aI259
aI0
aI0
aI259
aI259
aI0
aI0
aI259
aI259
aI0
aI0
aI259
aI259
aI203
aI0
aI462
aI259
aI256
aI0
aI515
aI259
aI0
aI0
aI259
aI259
aI69
aI0
aI328
aI259
aI127
aI94
aI386
aI353
aI0
aI0
aI259
aI259
aI0
aI0
aI259
aI259
aI0
aI152
aI259
aI411
aI112
aI0
aI371
aI259
aI0
aI45
aI259
aI304
aI53
aI46
aI312
aI305
aI137
aI0
aI396
aI259
aI235
aI0
aI494
aI259
aI0
aI104
aI259
aI363
aI0
aI0
aI259
aI259
aI0
aI0
aI259
aI259
aI92
aI0
aI351
aI259
aI0
aI0
aI259
aI259
aI16
aI0
aI275
aI259
aI0
aI0
aI259
aI259
aI0
aI0
aI259
aI259
aI0
aI169
aI259
aI428
aI0
aI0
aI259
aI259
aI0
aI0
aI259
aI259
aI0
aI0
aI259
aI259
aI178
aI14
aI437
aI273
aI0
aI17
aI259
aI276
aI0
aI0
aI259
aI259
aI0
aI0
aI259
aI259
aI0
aI0
aI259
aI259
aI105
aI0
aI364
aI259
aI0
aI0
aI259
aI259
aI0
aI215
aI259
aI474
aI0
aI0
aI259
aI259
aI0
aI246
aI259
aI505
aI0
aI131
aI259
aI390
aI0
aI0
aI259
aI259
aI0
aI0
aI259
aI259
aI0
aI0
aI259
aI259
aI0
aI0
aI259
aI259
aI0
aI0
aI259
aI259
aI0
aI0
aI259
aI259
aI0
aI0
aI259
aI259
aI0
aI0
aI259
aI259
aI0
aI0
aI259
aI259
aI0
aI0
aI259
aI259
aI0
aI194
aI259
aI453
aI0
aI0
aI259
aI259
aI0
aI0
aI259
aI259
aI0
aI0
aI259
aI259
aI92
aI0
aI351
aI259
aI250
aI0
aI509
aI259
aI0
aI0
aI259
aI259
aI0
aI0
aI259
aI259
aI0
aI0
aI259
aI259
aI0
aI0
aI259
aI259
aI0
aI0
aI259
aI259
aI0
aI0
aI259
aI259
aI0
aI0
aI259
aI259
aI0
aI202
aI259
aI461
aI0
aI0
aI259
aI259
aI148
aI0
aI407
aI259
aI0
aI0
aI259
aI259
aI0
aI0
aI259
aI259
aI0
aI0
aI259
aI259
aI0
aI0
aI259
aI259
aI186
aI0
aI445
aI259
aI3
aI0
aI262
aI259
aI207
aI0
aI466
aI259
aI0
aI0
aI259
aI259
aI87
aI0
aI346
aI259
aI0
aI0
aI259
aI259
aI0
aI0
aI259
aI259
aI0
aI0
aI259
aI259
aI0
aI0
aI259
aI259
aI0
aI0
aI259
aI259
aI131
aI0
aI390
aI259
aI97
aI0
aI356
aI259
aI2
aI0
aI261
aI259
aI3
aI0
aI262
aI259
aI0
aI0
aI259
aI259
aI0
aI10
aI259
aI269
aI0
aI11
aI259
aI270
aI0
aI0
aI259
aI259
aI0
aI0
aI259
aI259
aI0
aI0
aI259
aI259
aI0
aI0
aI259
aI259
aI0
aI0
aI259
aI259
aI257
aI0
aI516
aI259
aI10
aI0
aI269
aI259
aI11
aI0
aI270
aI259
aI0
aI0
aI259
aI259
aI0
aI0
aI259
aI259
aI0
aI22
aI259
aI281
aI0
aI0
aI259
aI259
aI0
aI0
aI259
aI259
aI181
aI0
aI440
aI259
aI203
aI0
aI462
aI259
aI0
aI0
aI259
aI259
aI0
aI0
aI259
aI259
aI215
aI0
aI474
aI259
aI0
aI0
aI259
aI259
aI0
aI0
aI259
aI259
aI0
aI0
aI259
aI259
aI0
aI0
aI259
aI259
aI179
aI0
aI438
aI259
aI0
aI0
aI259
aI259
aI0
aI0
aI259
aI259
aI0
aI0
aI259
aI259
aI0
aI0
aI259
aI259
aI0
aI0
aI259
aI259
aI0
aI0
aI259
aI259
aI0
aI92
aI259
aI351
aI0
aI0
aI259
aI259
aI0
aI0
aI259
aI259
aI0
aI105
aI259
aI364
aI0
aI0
aI259
aI259
aI0
aI0
aI259
aI259
aI148
aI0
aI407
aI259
aI0
aI0
aI259
aI259
aI0
aI184
aI259
aI443
aI0
aI0
aI259
aI259
aI0
aI0
aI259
aI259
aI0
aI0
aI259
aI259
aI0
aI196
aI259
aI455
aI0
aI159
aI259
aI418
aI0
aI0
aI259
aI259
aI0
aI0
aI259
aI259
aI0
aI0
aI259
aI259
aI0
aI0
aI259
aI259
aI0
aI240
aI259
aI499
aI0
aI0
aI259
aI259
aI0
aI0
aI259
aI259
aI0
aI184
aI259
aI443
aI0
aI187
aI259
aI446
aI0
aI0
aI259
aI259
aI0
aI118
aI259
aI377
aI0
aI0
aI259
aI259
aI0
aI180
aI259
aI439
aI0
aI0
aI259
aI259
aI231
aI133
aI490
aI392
aI0
aI0
aI259
aI259
aI0
aI88
aI259
aI347
aI0
aI21
aI259
aI280
aI0
aI0
aI259
aI259
aI0
aI0
aI259
aI259
aI0
aI0
aI259
aI259
aI0
aI0
aI259
aI259
aI0
aI0
aI259
aI259
aI0
aI0
aI259
aI259
aI0
aI0
aI259
aI259
aI0
aI0
aI259
aI259
aI0
aI0
aI259
aI259
aI0
aI0
aI259
aI259
aI0
aI0
aI259
aI259
aI0
aI0
aI259
aI259
aI0
aI0
aI259
aI259
aI0
aI0
aI259
aI259
aI0
aI0
aI259
aI259
aI0
aI0
aI259
aI259
aI0
aI0
aI259
aI259
aI0
aI0
aI259
aI259
aI0
aI0
aI259
aI259
aI0
aI0
aI259
aI259
aI0
aI0
aI259
aI259
aI121
aI0
aI380
aI259
aI0
aI0
aI259
aI259
aI0
aI100
aI259
aI359
aI0
aI0
aI259
aI259
aI0
aI0
aI259
aI259
aI0
aI0
aI259
aI259
aI0
aI0
aI259
aI259
aI0
aI0
aI259
aI259
aI0
aI0
aI259
aI259
aI0
aI56
aI259
aI315
aI0
aI0
aI259
aI259
aI0
aI0
aI259
aI259
aI0
aI0
aI259
aI259
aI0
aI0
aI259
aI259
aI0
aI0
aI259
aI259
aI0
aI0
aI259
aI259
aI0
aI0
aI259
aI259
aI49
aI0
aI308
aI259
aI0
aI0
aI259
aI259
aI0
aI0
aI259
aI259
aI0
aI0
aI259
aI259
aI137
aI0
aI396
aI259
aI0
aI87
aI259
aI346
aI0
aI0
aI259
aI259
aI189
aI0
aI448
aI259
aI0
aI0
aI259
aI259
aI0
aI0
aI259
aI259
aI249
aI0
aI508
aI259
aI0
aI0
aI259
aI259
aI0
aI255
aI259
aI514
aI0
aI126
aI259
aI385
aI0
aI0
aI259
aI259
aI0
aI0
aI259
aI259
aI73
aI0
aI332
aI259
aI66
aI0
aI325
aI259
aI0
aI0
aI259
aI259
aI0
aI0
aI259
aI259
aI0
aI0
aI259
aI259
aI0
aI133
aI259
aI392
aI0
aI0
aI259
aI259
aI0
aI0
aI259
aI259
aI0
aI0
aI259
aI259
aI0
aI81
aI259
aI340
aI0
aI0
aI259
aI259
aI59
aI91
aI318
aI350
aI0
aI0
aI259
aI259
aI0
aI0
aI259
aI259
aI0
aI0
aI259
aI259
aI0
aI0
aI259
aI259
aI0
aI0
aI259
aI259
aI205
aI0
aI464
aI259
aI0
aI0
aI259
aI259
aI0
aI39
aI259
aI298
aI0
aI0
aI259
aI259
aI0
aI0
aI259
aI259
aI0
aI0
aI259
aI259
aI0
aI0
aI259
aI259
aI0
aI110
aI259
aI369
aI0
aI0
aI259
aI259
aI0
aI0
aI259
aI259
aI0
aI0
aI259
aI259
aI0
aI0
aI259
aI259
aI0
aI0
aI259
aI259
aI0
aI0
aI259
aI259
aI0
aI17
aI259
aI276
aI0
aI0
aI259
aI259
aI0
aI0
aI259
aI259
aI0
aI112
aI259
aI371
aI6
aI0
aI265
aI259
aI206
aI0
aI465
aI259
aI0
aI0
aI259
aI259
aI0
aI0
aI259
aI259
aI0
aI144
aI259
aI403
aI0
aI239
aI259
aI498
aI0
aI0
aI259
aI259
aI30
aI0
aI289
aI259
aI0
aI136
aI259
aI395
aI0
aI0
aI259
aI259
aI0
aI0
aI259
aI259
aI0
aI0
aI259
aI259
aI0
aI0
aI259
aI259
aI0
aI0
aI259
aI259
aI232
aI172
aI491
aI431
aI0
aI0
aI259
aI259
aI0
aI0
aI259
aI259
aI0
aI0
aI259
aI259
aI0
aI0
aI259
aI259
aI0
aI0
aI259
aI259
aI0
aI0
aI259
aI259
aI0
aI235
aI259
aI494
aI0
aI0
aI259
aI259
aI218
aI0
aI477
aI259
aI0
aI0
aI259
aI259
aI0
aI51
aI259
aI310
aI0
aI52
aI259
aI311
aI0
aI0
aI259
aI259
aI0
aI0
aI259
aI259
aI0
aI0
aI259
aI259
aI0
aI0
aI259
aI259
aI163
aI0
aI422
aI259
aI0
aI196
aI259
aI455
aI0
aI0
aI259
aI259
aI0
aI0
aI259
aI259
aI0
aI0
aI259
aI259
aI0
aI0
aI259
aI259
aI162
aI0
aI421
aI259
aI0
aI0
aI259
aI259
aI0
aI0
aI259
aI259
aI0
aI0
aI259
aI259
aI40
aI0
aI299
aI259
aI0
aI0
aI259
aI259
aI0
aI222
aI259
aI481
aI0
aI0
aI259
aI259
aI0
aI117
aI259
aI376
aI0
aI0
aI259
aI259
aI0
aI252
aI259
aI511
aI29
aI212
aI288
aI471
aI0
aI0
aI259
aI259
aI0
aI0
aI259
aI259
aI200
aI0
aI459
aI259
aI4
aI0
aI263
aI259
aI206
aI0
aI465
aI259
aI0
aI155
aI259
aI414
aI12
aI0
aI271
aI259
aI0
aI0
aI259
aI259
aI0
aI0
aI259
aI259
aI0
aI0
aI259
aI259
aI0
aI0
aI259
aI259
aI0
aI0
aI259
aI259
aI0
aI235
aI259
aI494
aI0
aI0
aI259
aI259
aI0
aI0
aI259
aI259
aI0
aI0
aI259
aI259
aI0
aI121
aI259
aI380
aI0
aI0
aI259
aI259
aI0
aI172
aI259
aI431
aI0
aI0
aI259
aI259
aI0
aI0
aI259
aI259
aI0
aI0
aI259
aI259
aI0
aI0
aI259
aI259
aI143
aI0
aI402
aI259
aI0
aI0
aI259
aI259
aI0
aI254
aI259
aI513
aI0
aI0
aI259
aI259
aI0
aI0
aI259
aI259
aI0
aI0
aI259
aI259
aI37
aI7
aI296
aI266
aI0
aI0
aI259
aI259
aI0
aI24
aI259
aI283
aI0
aI123
aI259
aI382
aI0
aI0
aI259
aI259
aI214
aI0
aI473
aI259
aI198
aI197
aI457
aI456
aI0
aI0
aI259
aI259
aI0
aI0
aI259
aI259
aI0
aI0
aI259
aI259
aI0
aI0
aI259
aI259
aI0
aI0
aI259
aI259
aI0
aI0
aI259
aI259
aI0
aI0
aI259
aI259
aI17
aI0
aI276
aI259
aI0
aI0
aI259
aI259
aI103
aI0
aI362
aI259
aI54
aI0
aI313
aI259
aI55
aI0
aI314
aI259
aI0
aI0
aI259
aI259
aI0
aI0
aI259
aI259
aI156
aI0
aI415
aI259
aI0
aI0
aI259
aI259
aI0
aI0
aI259
aI259
aI0
aI0
aI259
aI259
aI0
aI0
aI259
aI259
aI0
aI0
aI259
aI259
aI0
aI0
aI259
aI259
aI0
aI0
aI259
aI259
aI58
aI0
aI317
aI259
aI59
aI0
aI318
aI259
aI76
aI0
aI335
aI259
aI0
aI0
aI259
aI259
aI0
aI0
aI259
aI259
aI0
aI0
aI259
aI259
aI0
aI0
aI259
aI259
aI0
aI0
aI259
aI259
aI0
aI0
aI259
aI259
aI0
aI0
aI259
aI259
aI0
aI0
aI259
aI259
aI0
aI0
aI259
aI259
aI0
aI45
aI259
aI304
aI0
aI46
aI259
aI305
aI0
aI232
aI259
aI491
aI0
aI0
aI259
aI259
aI87
aI0
aI346
aI259
aI0
aI0
aI259
aI259
aI0
aI206
aI259
aI465
aI0
aI0
aI259
aI259
aI0
aI0
aI259
aI259
aI0
aI0
aI259
aI259
aI0
aI0
aI259
aI259
aI56
aI0
aI315
aI259
aI179
aI0
aI438
aI259
aI0
aI0
aI259
aI259
aI0
aI0
aI259
aI259
aI0
aI53
aI259
aI312
aI0
aI62
aI259
aI321
aI0
aI0
aI259
aI259
aI138
aI0
aI397
aI259
aI0
aI203
aI259
aI462
aI0
aI0
aI259
aI259
aI0
aI103
aI259
aI362
aI0
aI0
aI259
aI259
aI247
aI0
aI506
aI259
aI0
aI0
aI259
aI259
aI0
aI0
aI259
aI259
aI0
aI0
aI259
aI259
aI0
aI58
aI259
aI317
aI0
aI122
aI259
aI381
aI0
aI23
aI259
aI282
aI0
aI24
aI259
aI283
aI0
aI0
aI259
aI259
aI0
aI0
aI259
aI259
aI0
aI216
aI259
aI475
aI0
aI0
aI259
aI259
aI0
aI35
aI259
aI294
aI0
aI0
aI259
aI259
aI0
aI0
aI259
aI259
aI70
aI183
aI329
aI442
aI0
aI0
aI259
aI259
aI191
aI0
aI450
aI259
aI0
aI0
aI259
aI259
aI0
aI125
aI259
aI384
aI0
aI0
aI259
aI259
aI0
aI0
aI259
aI259
aI254
aI0
aI513
aI259
aI0
aI0
aI259
aI259
aI0
aI57
aI259
aI316
aI0
aI0
aI259
aI259
aI0
aI3
aI259
aI262
aI0
aI0
aI259
aI259
aI0
aI0
aI259
aI259
aI0
aI60
aI259
aI319
aI0
aI60
aI259
aI319
aI0
aI61
aI259
aI320
aI0
aI0
aI259
aI259
aI0
aI0
aI259
aI259
aI0
aI0
aI259
aI259
aI146
aI0
aI405
aI259
aI215
aI0
aI474
aI259
aI109
aI0
aI368
aI259
aI0
aI0
aI259
aI259
aI0
aI0
aI259
aI259
aI151
aI0
aI410
aI259
aI0
aI0
aI259
aI259
aI0
aI0
aI259
aI259
aI0
aI0
aI259
aI259
aI0
aI0
aI259
aI259
aa.